
./dbscan:     file format elf64-x86-64
architecture: i386:x86-64, flags 0x00000112:
EXEC_P, HAS_SYMS, D_PAGED
start address 0x0000000000400b4c

Contents of section .interp:
 400238 2f6c6962 36342f6c 642d6c69 6e75782d  /lib64/ld-linux-
 400248 7838362d 36342e73 6f2e3200           x86-64.so.2.    
Contents of section .note.ABI-tag:
 400254 04000000 10000000 01000000 474e5500  ............GNU.
 400264 00000000 02000000 06000000 20000000  ............ ...
Contents of section .note.gnu.build-id:
 400274 04000000 14000000 03000000 474e5500  ............GNU.
 400284 826bcb3c d0c81ce2 1a64b774 066b1922  .k.<.....d.t.k."
 400294 d57dc32c                             .}.,            
Contents of section .gnu.hash:
 400298 01000000 01000000 01000000 00000000  ................
 4002a8 00000000 00000000 00000000           ............    
Contents of section .dynsym:
 4002b8 00000000 00000000 00000000 00000000  ................
 4002c8 00000000 00000000 5c000000 12000000  ........\.......
 4002d8 00000000 00000000 00000000 00000000  ................
 4002e8 2e000000 12000000 00000000 00000000  ................
 4002f8 00000000 00000000 29000000 12000000  ........).......
 400308 00000000 00000000 00000000 00000000  ................
 400318 36000000 12000000 00000000 00000000  6...............
 400328 00000000 00000000 4a000000 12000000  ........J.......
 400338 00000000 00000000 00000000 00000000  ................
 400348 0b000000 20000000 00000000 00000000  .... ...........
 400358 00000000 00000000 3d000000 12000000  ........=.......
 400368 00000000 00000000 00000000 00000000  ................
 400378 44000000 12000000 00000000 00000000  D...............
 400388 00000000 00000000 1a000000 12000000  ................
 400398 00000000 00000000 00000000 00000000  ................
Contents of section .dynstr:
 4003a8 006c6962 6d2e736f 2e36005f 5f676d6f  .libm.so.6.__gmo
 4003b8 6e5f7374 6172745f 5f007371 7274006c  n_start__.sqrt.l
 4003c8 6962632e 736f2e36 00707574 73007075  ibc.so.6.puts.pu
 4003d8 74636861 72007072 696e7466 006d616c  tchar.printf.mal
 4003e8 6c6f6300 627a6572 6f005f5f 6c696263  loc.bzero.__libc
 4003f8 5f737461 72745f6d 61696e00 66726565  _start_main.free
 400408 00474c49 42435f32 2e322e35 00        .GLIBC_2.2.5.   
Contents of section .gnu.version:
 400416 00000200 02000200 02000200 00000200  ................
 400426 02000300                             ....            
Contents of section .gnu.version_r:
 400430 01000100 01000000 10000000 20000000  ............ ...
 400440 751a6909 00000300 61000000 00000000  u.i.....a.......
 400450 01000100 1f000000 10000000 00000000  ................
 400460 751a6909 00000200 61000000 00000000  u.i.....a.......
Contents of section .rela.dyn:
 400470 f81f6000 00000000 06000000 06000000  ..`.............
 400480 00000000 00000000                    ........        
Contents of section .rela.plt:
 400488 18206000 00000000 07000000 01000000  . `.............
 400498 00000000 00000000 20206000 00000000  ........  `.....
 4004a8 07000000 02000000 00000000 00000000  ................
 4004b8 28206000 00000000 07000000 03000000  ( `.............
 4004c8 00000000 00000000 30206000 00000000  ........0 `.....
 4004d8 07000000 04000000 00000000 00000000  ................
 4004e8 38206000 00000000 07000000 05000000  8 `.............
 4004f8 00000000 00000000 40206000 00000000  ........@ `.....
 400508 07000000 06000000 00000000 00000000  ................
 400518 48206000 00000000 07000000 07000000  H `.............
 400528 00000000 00000000 50206000 00000000  ........P `.....
 400538 07000000 08000000 00000000 00000000  ................
 400548 58206000 00000000 07000000 09000000  X `.............
 400558 00000000 00000000                    ........        
Contents of section .init:
 400560 4883ec08 488b058d 1a200048 85c07405  H...H.... .H..t.
 400570 e86b0000 004883c4 08c3               .k...H....      
Contents of section .plt:
 400580 ff35821a 2000ff25 841a2000 0f1f4000  .5.. ..%.. ...@.
 400590 ff25821a 20006800 000000e9 e0ffffff  .%.. .h.........
 4005a0 ff257a1a 20006801 000000e9 d0ffffff  .%z. .h.........
 4005b0 ff25721a 20006802 000000e9 c0ffffff  .%r. .h.........
 4005c0 ff256a1a 20006803 000000e9 b0ffffff  .%j. .h.........
 4005d0 ff25621a 20006804 000000e9 a0ffffff  .%b. .h.........
 4005e0 ff255a1a 20006805 000000e9 90ffffff  .%Z. .h.........
 4005f0 ff25521a 20006806 000000e9 80ffffff  .%R. .h.........
 400600 ff254a1a 20006807 000000e9 70ffffff  .%J. .h.....p...
 400610 ff25421a 20006808 000000e9 60ffffff  .%B. .h.....`...
Contents of section .text:
 400620 41554154 4531e455 31ed5348 83ec1890  AUATE1.U1.SH....
 400630 0f314889 d389c048 c1e32048 09c3e81d  .1H....H.. H....
 400640 0c000041 89c50f31 48c1e220 89c04809  ...A...1H.. ..H.
 400650 c24829da 4901d448 83fd6374 2bc70565  .H).I..H..ct+..e
 400660 1a200000 000000b8 1c216000 0f1f4000  . .......!`...@.
 400670 c7000000 00004883 c050483d fc406000  ......H..PH=.@`.
 400680 75ee4883 c501eba8 4d85e40f 88ee0300  u.H.....M.......
 400690 00f2490f 2ad4488b 05233a20 004885c0  ..I.*.H..#: .H..
 4006a0 f20f1114 240f8805 040000f2 480f2ac0  ....$.......H.*.
 4006b0 f20f5e04 244585ed bd010000 00f20f59  ..^.$E.........Y
 4006c0 058b1300 00f20f11 4424087e 5e89eebf  ........D$.~^...
 4006d0 26144000 31c0e8e5 feffffbb cc206000  &.@.1........ `.
 4006e0 eb13660f 1f440000 4883c350 4881fbfc  ..f..D..H..PH...
 4006f0 40600074 24392b75 ef8b53fc 488b73b4  @`.t$9+u..S.H.s.
 400700 31c0bf31 14400048 83c350e8 b0feffff  1..1.@.H..P.....
 400710 4881fbfc 40600075 dcbf0a00 000083c5  H...@`.u........
 400720 01e87afe ffff4139 ed7da2bf 20144000  ..z...A9.}.. .@.
 400730 bbcc2060 00e876fe ffffeb11 0f1f4000  .. `..v.......@.
 400740 4883c350 4881fbfc 40600074 25833b08  H..PH...@`.t%.;.
 400750 75ee8b53 fc488b73 b431c0bf 31144000  u..S.H.s.1..1.@.
 400760 4883c350 e857feff ff4881fb fc406000  H..P.W...H...@`.
 400770 75dbbf0a 000000e8 24feffff bf3c1440  u.......$....<.@
 400780 00e82afe ffffba10 000000be 67000000  ..*.........g...
 400790 bfd81740 0031c0e8 24feffff be640000  ...@.1..$....d..
 4007a0 00bf1018 400031c0 e813feff ff4c89e6  ....@.1......L..
 4007b0 bf101940 0031c0e8 04feffff 488b35fd  ...@.1......H.5.
 4007c0 382000bf 48194000 31c0e8f1 fdfffff2  8 ..H.@.1.......
 4007d0 0f100581 120000bf 40184000 b8010000  ........@.@.....
 4007e0 00f20f59 0424f20f 5e057212 0000e8cd  ...Y.$..^.r.....
 4007f0 fdffff48 8b05c638 20004885 c00f88c7  ...H...8 .H.....
 400800 020000f2 480f2ac0 f20f5905 48120000  ....H.*...Y.H...
 400810 bf681840 00b80100 0000f20f 5e053e12  .h.@........^.>.
 400820 0000e899 fdfffff2 0f104424 08bf9018  ..........D$....
 400830 4000b801 000000e8 84fdffff 488b057d  @...........H..}
 400840 3820008b 35973820 004885c0 0f88e002  8 ..5.8 .H......
 400850 0000f248 0f2ac0f2 0f2acebf c8184000  ...H.*...*....@.
 400860 b8010000 004c89e3 48bdc3f5 285c8fc2  .....L..H...(\..
 400870 f52848c1 eb02f20f 5ec1e841 fdffffbf  .(H.....^..A....
 400880 4d144000 e827fdff ff4889d8 bf081940  M.@..'...H.....@
 400890 0048f7e5 31c04889 d348c1eb 024889de  .H..1.H..H...H..
 4008a0 e81bfdff ff488b35 14382000 bf401940  .....H.5.8 ..@.@
 4008b0 0048c1ee 024889f0 48f7e531 c04889d6  .H...H..H..1.H..
 4008c0 48c1ee02 e8f7fcff fff2480f 2ac3bf40  H.........H.*..@
 4008d0 184000b8 01000000 f20f5905 78110000  .@........Y.x...
 4008e0 f20f5e05 78110000 e8d3fcff ff488b15  ..^.x........H..
 4008f0 cc372000 bf681840 0048c1ea 024889d0  .7 ..h.@.H...H..
 400900 48f7e5b8 01000000 48c1ea02 f2480f2a  H.......H....H.*
 400910 c2f20f59 053f1100 00f20f5e 053f1100  ...Y.?.....^.?..
 400920 00e89afc fffff20f 10442408 bf901840  .........D$....@
 400930 00b80100 0000e885 fcffff48 8b057e37  ...........H..~7
 400940 20004863 35973720 004885c0 0f88c601   .Hc5.7 .H......
 400950 0000f248 0f2ac0f2 0f2ace48 c1ee0248  ...H.*...*.H...H
 400960 bbc3f528 5c8fc2f5 284889f0 bf781940  ...(\...(H...x.@
 400970 0048f7e3 b8010000 004889d6 48c1ee02  .H.......H..H...
 400980 f20f5ec1 e837fcff ffbf6b14 4000e81d  ..^..7....k.@...
 400990 fcffffbf 7e144000 e813fcff ffbf9714  ....~.@.........
 4009a0 4000e809 fcffffbf b2144000 e8fffbff  @.........@.....
 4009b0 ff486315 28372000 bfb81940 0048c1ea  .Hc.(7 ....@.H..
 4009c0 024889d0 48f7e331 c048c1ea 02488d34  .H..H..1.H...H.4
 4009d0 52e8eafb ffff488b 35e33620 00bff819  R.....H.5.6 ....
 4009e0 400048c1 ee024889 f048f7e3 31c04889  @.H...H..H..1.H.
 4009f0 d648c1ee 02e8c6fb fffff20f 2a05de36  .H..........*..6
 400a00 2000488b 05b73620 00f20f59 05571000   .H...6 ...Y.W..
 400a10 004885c0 0f88e400 0000f248 0f2ac8f2  .H.........H.*..
 400a20 0f5ec1bf c9144000 b8010000 00e88efb  .^....@.........
 400a30 fffff20f 2a05a636 2000488b 057f3620  ....*..6 .H...6 
 400a40 00f20f59 051f1000 004885c0 0f889200  ...Y.....H......
 400a50 0000f248 0f2ac8f2 0f5ec1bf e4144000  ...H.*...^....@.
 400a60 b8010000 00f20f59 05eb0f00 00e84efb  .......Y......N.
 400a70 ffff4883 c41831c0 5b5d415c 415dc34c  ..H...1.[]A\A].L
 400a80 89e04c89 e248d1e8 83e20148 09d0f248  ..L..H.....H...H
 400a90 0f2ad848 8b052636 20004885 c0660f28  .*.H..&6 .H..f.(
 400aa0 e3f20f58 e3f20f11 24240f89 fbfbffff  ...X....$$......
 400ab0 4889c283 e00148d1 ea4809c2 f2480f2a  H.....H..H...H.*
 400ac0 c2f20f58 c0e9e6fb ffff4889 c283e001  ...X......H.....
 400ad0 48d1ea48 09c2f248 0f2ac2f2 0f58c0e9  H..H...H.*...X..
 400ae0 24fdffff 4889c283 e00148d1 ea4809c2  $...H.....H..H..
 400af0 f2480f2a caf20f58 c9e959ff ffff4889  .H.*...X..Y...H.
 400b00 c283e001 48d1ea48 09c2f248 0f2acaf2  ....H..H...H.*..
 400b10 0f58c9e9 07ffffff 4889c283 e00148d1  .X......H.....H.
 400b20 ea4809c2 f2480f2a c2f20f58 c0e925fe  .H...H.*...X..%.
 400b30 ffff4889 c283e001 48d1ea48 09c2f248  ..H.....H..H...H
 400b40 0f2ac2f2 0f58c0e9 0bfdffff 31ed4989  .*...X......1.I.
 400b50 d15e4889 e24883e4 f0505449 c7c00014  .^H..H...PTI....
 400b60 400048c7 c1901340 0048c7c7 20064000  @.H....@.H.. .@.
 400b70 e85bfaff fff4662e 0f1f8400 00000000  .[....f.........
 400b80 b8b74060 0055482d b0406000 4883f80e  ..@`.UH-.@`.H...
 400b90 4889e577 025dc3b8 00000000 4885c074  H..w.]......H..t
 400ba0 f45dbfb0 406000ff e00f1f80 00000000  .]..@`..........
 400bb0 b8b04060 0055482d b0406000 48c1f803  ..@`.UH-.@`.H...
 400bc0 4889e548 89c248c1 ea3f4801 d048d1f8  H..H..H..?H..H..
 400bd0 75025dc3 ba000000 004885d2 74f45d48  u.]......H..t.]H
 400be0 89c6bfb0 406000ff e20f1f80 00000000  ....@`..........
 400bf0 803db934 20000075 11554889 e5e87eff  .=.4 ..u.UH...~.
 400c00 ffff5dc6 05a63420 0001f3c3 0f1f4000  ..]...4 ......@.
 400c10 48833df8 11200000 741eb800 00000048  H.=.. ..t......H
 400c20 85c07414 55bf101e 60004889 e5ffd05d  ..t.U...`.H....]
 400c30 e97bffff ff0f1f00 e973ffff ff0f1f00  .{.......s......
 400c40 83059934 2000010f 314989d0 4863ff89  ...4 ...1I..Hc..
 400c50 c049c1e0 20488d0c bf4863f6 4909c048  .I.. H...Hc.I..H
 400c60 8d04b648 c1e1044c 89056234 200048c1  ...H...L..b4 .H.
 400c70 e004f30f 10898820 6000f30f 5c888820  ....... `...\.. 
 400c80 6000f30f 10818c20 6000f30f 5c808c20  `...... `...\.. 
 400c90 6000f30f 59c9f30f 59c00f14 c90f14c0  `...Y...Y.......
 400ca0 0f5ac90f 5ac0f20f 580d920d 0000f20f  .Z..Z...X.......
 400cb0 58c8f30f 10819020 6000f30f 5c809020  X...... `...\.. 
 400cc0 6000f30f 59c00f14 c00f5ac0 f20f58c8  `...Y.....Z...X.
 400cd0 f30f1081 94206000 f30f5c80 94206000  ..... `...\.. `.
 400ce0 f30f59c0 0f14c00f 5ac0f20f 58c8f30f  ..Y.....Z...X...
 400cf0 10819820 6000f30f 5c809820 6000f30f  ... `...\.. `...
 400d00 59c00f14 c00f5ac0 f20f58c8 f30f1081  Y.....Z...X.....
 400d10 9c206000 f30f5c80 9c206000 f30f59c0  . `...\.. `...Y.
 400d20 0f14c00f 5ac0f20f 58c8f30f 1081a020  ....Z...X...... 
 400d30 6000f30f 5c80a020 6000f30f 59c00f14  `...\.. `...Y...
 400d40 c00f5ac0 f20f58c8 f30f1081 a4206000  ..Z...X...... `.
 400d50 f30f5c80 a4206000 f30f59c0 0f14c00f  ..\.. `...Y.....
 400d60 5ac0f20f 58c8f30f 1081a820 6000f30f  Z...X...... `...
 400d70 5c80a820 6000f30f 59c00f14 c00f5ac0  \.. `...Y.....Z.
 400d80 f20f58c8 f30f1081 ac206000 f30f5c80  ..X...... `...\.
 400d90 ac206000 f30f59c0 0f14c00f 5ac0f20f  . `...Y.....Z...
 400da0 58c8f30f 1081b020 6000f30f 5c80b020  X...... `...\.. 
 400db0 6000f30f 59c00f14 c00f5ac0 f20f58c8  `...Y.....Z...X.
 400dc0 f30f1081 b4206000 f30f5c80 b4206000  ..... `...\.. `.
 400dd0 f30f59c0 0f14c00f 5ac0f20f 58c8f30f  ..Y.....Z...X...
 400de0 1081b820 6000f30f 5c80b820 6000f30f  ... `...\.. `...
 400df0 59c00f14 c00f5ac0 f20f58c8 f30f1081  Y.....Z...X.....
 400e00 bc206000 f30f5c80 bc206000 f30f59c0  . `...\.. `...Y.
 400e10 0f14c00f 5ac0f20f 58c8f30f 1081c020  ....Z...X...... 
 400e20 6000f30f 5c80c020 6000f30f 59c00f14  `...\.. `...Y...
 400e30 c00f5ac0 f20f58c8 f30f1081 c4206000  ..Z...X...... `.
 400e40 f30f5c80 c4206000 0f31f30f 59c048c1  ..\.. `..1..Y.H.
 400e50 e22089c0 4809c248 89156a32 20004c29  . ..H..H..j2 .L)
 400e60 c2480115 58322000 0f14c00f 5ad0f20f  .H..X2 .....Z...
 400e70 58d1f20f 51c2660f 2ec07a02 f3c3660f  X...Q.f...z...f.
 400e80 28c24883 ec08e885 f7ffff48 83c408eb  (.H........H....
 400e90 eb0f1f44 0000662e 0f1f8400 00000000  ...D..f.........
 400ea0 41564155 4189fdbf a0010000 41544531  AVAUA.......ATE1
 400eb0 e45553bb 88206000 e833f7ff ffbea001  .US.. `..3......
 400ec0 00004889 c74989c6 e833f7ff ff4963c5  ..H..I...3...Ic.
 400ed0 488d2c80 48c1e504 0f1f8400 00000000  H.,.H...........
 400ee0 4539e50f 84100200 008305f0 31200001  E9..........1 ..
 400ef0 0f31f30f 108d8820 60004889 d1f30f5c  .1..... `.H....\
 400f00 0b48c1e1 2089c0f3 0f10858c 20600048  .H.. ....... `.H
 400f10 09c1f30f 5c430448 890db231 2000f30f  ....\C.H...1 ...
 400f20 59c9f30f 59c00f14 c90f14c0 0f5ac90f  Y...Y........Z..
 400f30 5ac0f20f 580d060b 0000f20f 58c8f30f  Z...X.......X...
 400f40 10859020 6000f30f 5c4308f3 0f59c00f  ... `...\C...Y..
 400f50 14c00f5a c0f20f58 c8f30f10 85942060  ...Z...X...... `
 400f60 00f30f5c 430cf30f 59c00f14 c00f5ac0  ...\C...Y.....Z.
 400f70 f20f58c8 f30f1085 98206000 f30f5c43  ..X...... `...\C
 400f80 10f30f59 c00f14c0 0f5ac0f2 0f58c8f3  ...Y.....Z...X..
 400f90 0f10859c 206000f3 0f5c4314 f30f59c0  .... `...\C...Y.
 400fa0 0f14c00f 5ac0f20f 58c8f30f 1085a020  ....Z...X...... 
 400fb0 6000f30f 5c4318f3 0f59c00f 14c00f5a  `...\C...Y.....Z
 400fc0 c0f20f58 c8f30f10 85a42060 00f30f5c  ...X...... `...\
 400fd0 431cf30f 59c00f14 c00f5ac0 f20f58c8  C...Y.....Z...X.
 400fe0 f30f1085 a8206000 f30f5c43 20f30f59  ..... `...\C ..Y
 400ff0 c00f14c0 0f5ac0f2 0f58c8f3 0f1085ac  .....Z...X......
 401000 206000f3 0f5c4324 f30f59c0 0f14c00f   `...\C$..Y.....
 401010 5ac0f20f 58c8f30f 1085b020 6000f30f  Z...X...... `...
 401020 5c4328f3 0f59c00f 14c00f5a c0f20f58  \C(..Y.....Z...X
 401030 c8f30f10 85b42060 00f30f5c 432cf30f  ...... `...\C,..
 401040 59c00f14 c00f5ac0 f20f58c8 f30f1085  Y.....Z...X.....
 401050 b8206000 f30f5c43 30f30f59 c00f14c0  . `...\C0..Y....
 401060 0f5ac0f2 0f58c8f3 0f1085bc 206000f3  .Z...X...... `..
 401070 0f5c4334 f30f59c0 0f14c00f 5ac0f20f  .\C4..Y.....Z...
 401080 58c8f30f 1085c020 6000f30f 5c4338f3  X...... `...\C8.
 401090 0f59c00f 14c00f5a c0f20f58 c8f30f10  .Y.....Z...X....
 4010a0 85c42060 00f30f5c 433c0f31 f30f59c0  .. `...\C<.1..Y.
 4010b0 48c1e220 89c04809 c2488915 08302000  H.. ..H..H...0 .
 4010c0 4829ca48 0115f62f 20000f14 c00f5ac0  H).H.../ .....Z.
 4010d0 f20f58c8 f20f51c1 660f2ec0 7a39f20f  ..X...Q.f...z9..
 4010e0 100d6209 0000660f 2ec8720d 43c744a6  ..b...f...r.C.D.
 4010f0 04010000 00418306 014983c4 014883c3  .....A...I...H..
 401100 504983fc 670f85d5 fdffff5b 5d415c41  PI..g......[]A\A
 401110 5d4c89f0 415ec366 0f28c1e8 f0f4ffff  ]L..A^.f.(......
 401120 ebbc0f1f 4000662e 0f1f8400 00000000  ....@.f.........
 401130 e95bf4ff ff90662e 0f1f8400 00000000  .[....f.........
 401140 31c0660f 1f440000 8b540604 85d27408  1.f..D...T....t.
 401150 c7440704 01000000 4883c004 483d9c01  .D......H...H=..
 401160 000075e4 f3c3662e 0f1f8400 00000000  ..u...f.........
 401170 41554154 4c63e74f 8d2ca455 31ed49c1  AUATLc.O.,.U1.I.
 401180 e5045348 89f34883 ec08660f 1f440000  ..SH..H...f..D..
 401190 4863c548 8d148500 00000048 8d0c138b  Hc.H.......H....
 4011a0 710485f6 0f849600 00004801 c2c74104  q.........H...A.
 4011b0 00000000 48c1e204 8b8acc20 60004881  ....H...... `.H.
 4011c0 c2c02060 0083f908 747b85c9 75724b8d  .. `....t{..urK.
 4011d0 14a4488d 048089ef 83c50148 c1e20448  ..H........H...H
 4011e0 c1e0048b 92cc2060 008990cc 206000e8  ...... `.... `..
 4011f0 acfcffff 8338037e 2931d20f 1f440000  .....8.~)1...D..
 401200 8b4c1004 85c97408 c7441304 01000000  .L....t..D......
 401210 4883c204 4881fa9c 01000075 e3bd0100  H...H......u....
 401220 00004889 c7e866f3 ffff83fd 660f8e5d  ..H...f.....f..]
 401230 ffffff48 83c4085b 5d415c41 5dc36690  ...H...[]A\A].f.
 401240 83c501eb e5418b8d cc206000 894a0ce9  .....A... `..J..
 401250 7affffff 6690662e 0f1f8400 00000000  z...f.f.........
 401260 415641be cc206000 41554531 ed415445  AVA.. `.AUE1.ATE
 401270 31e45553 eb18662e 0f1f8400 00000000  1.US..f.........
 401280 4183c401 4983c650 4183fc67 7434418b  A...I..PA..gt4A.
 401290 3e85ff75 eb4489e7 e803fcff ff833803  >..u.D........8.
 4012a0 4889c37f 294889c7 4183c401 41c70608  H...)H..A...A...
 4012b0 000000e8 d8f2ffff 4983c650 4183fc67  ........I..PA..g
 4012c0 75cc5b5d 415c4489 e8415d41 5ec34183  u.[]A\D..A]A^.A.
 4012d0 c50131ed 45892e66 0f1f8400 00000000  ..1.E..f........
 4012e0 4863c548 8d148500 00000048 8d0c138b  Hc.H.......H....
 4012f0 710485f6 0f848600 00004801 c2c74104  q.........H...A.
 401300 00000000 48c1e204 8b8acc20 60004881  ....H...... `.H.
 401310 c2c02060 0083f908 746b85c9 7562418b  .. `....tk..ubA.
 401320 16488d04 8089ef83 c50148c1 e0048990  .H........H.....
 401330 cc206000 e867fbff ff833803 7e2431d2  . `..g....8.~$1.
 401340 8b4c1004 85c97408 c7441304 01000000  .L....t..D......
 401350 4883c204 4881fa9c 01000075 e3bd0100  H...H......u....
 401360 00004889 c7e826f2 ffff83fd 660f8e6d  ..H...&.....f..m
 401370 ffffff48 89dfe815 f2ffffe9 00ffffff  ...H............
 401380 83c501eb e5418b0e 894a0ceb 910f1f00  .....A...J......
 401390 41574189 ff415649 89f64155 4989d541  AWA..AVI..AUI..A
 4013a0 544c8d25 580a2000 55488d2d 580a2000  TL.%X. .UH.-X. .
 4013b0 534c29e5 31db48c1 fd034883 ec08e89d  SL).1.H...H.....
 4013c0 f1ffff48 85ed741e 0f1f8400 00000000  ...H..t.........
 4013d0 4c89ea4c 89f64489 ff41ff14 dc4883c3  L..L..D..A...H..
 4013e0 014839eb 75ea4883 c4085b5d 415c415d  .H9.u.H...[]A\A]
 4013f0 415e415f c390662e 0f1f8400 00000000  A^A_..f.........
 401400 f3c3                                 ..              
Contents of section .fini:
 401404 4883ec08 4883c408 c3                 H...H....       
Contents of section .rodata:
 401410 01000200 00000000 00000000 00000000  ................
 401420 4e4f4953 4500436c 61737320 25643a0a  NOISE.Class %d:.
 401430 00202025 73202825 64290a00 44617461  .  %s (%d)..Data
 401440 73657420 4d657472 6963733a 000a4176  set Metrics:..Av
 401450 65726167 65205065 72666f72 6d616e63  erage Performanc
 401460 65204d65 74726963 733a000a 5065616b  e Metrics:..Peak
 401470 20506572 666f726d 616e6365 3a005065   Performance:.Pe
 401480 616b2046 4c4f5053 2f437963 6c65203d  ak FLOPS/Cycle =
 401490 2032342e 30300050 65616b20 47464c4f   24.00.Peak GFLO
 4014a0 50532f53 65636f6e 64203d20 37362e38  PS/Second = 76.8
 4014b0 30000a42 6173656c 696e6520 50657266  0..Baseline Perf
 4014c0 6f726d61 6e63653a 00426173 656c696e  ormance:.Baselin
 4014d0 6520464c 4f50532f 4379636c 65203d20  e FLOPS/Cycle = 
 4014e0 25660a00 42617365 6c696e65 2047464c  %f..Baseline GFL
 4014f0 4f50532f 5365636f 6e64203d 20256600  OPS/Second = %f.
 401500 61617264 7661726b 00616e74 656c6f70  aardvark.antelop
 401510 65006261 73730062 65617200 626f6172  e.bass.bear.boar
 401520 00627566 66616c6f 0063616c 66006361  .buffalo.calf.ca
 401530 72700063 61746669 73680063 61767900  rp.catfish.cavy.
 401540 63686565 74616800 63686963 6b656e00  cheetah.chicken.
 401550 63687562 00637261 62006372 61796669  chub.crab.crayfi
 401560 73680063 726f7700 646f6766 69736800  sh.crow.dogfish.
 401570 646f6c70 68696e00 646f7665 00647563  dolphin.dove.duc
 401580 6b00656c 65706861 6e740066 6c616d69  k.elephant.flami
 401590 6e676f00 666c6561 0066726f 67006672  ngo.flea.frog.fr
 4015a0 75697462 61740067 69726166 66650067  uitbat.giraffe.g
 4015b0 69726c00 676e6174 00676f61 7400676f  irl.gnat.goat.go
 4015c0 72696c6c 61006775 6c6c0068 6164646f  rilla.gull.haddo
 4015d0 636b0068 616d7374 65720068 61726500  ck.hamster.hare.
 4015e0 6861776b 00686572 72696e67 00686f6e  hawk.herring.hon
 4015f0 65796265 6500686f 75736566 6c79006b  eybee.housefly.k
 401600 69776900 6c616479 62697264 006c6172  iwi.ladybird.lar
 401610 6b006c65 6f706172 64006c6f 62737465  k.leopard.lobste
 401620 72006c79 6e78006d 696e6b00 6d6f6c65  r.lynx.mink.mole
 401630 006d6f6e 676f6f73 65006d6f 7468006e  .mongoose.moth.n
 401640 65777400 6f63746f 70757300 6f706f73  ewt.octopus.opos
 401650 73756d00 6f727978 006f7374 72696368  sum.oryx.ostrich
 401660 00706172 616b6565 74007065 6e677569  .parakeet.pengui
 401670 6e007068 65617361 6e740070 696b6500  n.pheasant.pike.
 401680 70697261 6e686100 70697476 69706572  piranha.pitviper
 401690 00706c61 74797075 7300706f 6c656361  .platypus.poleca
 4016a0 7400706f 6e790070 6f72706f 69736500  t.pony.porpoise.
 4016b0 70756d61 00707573 73796361 74007261  puma.pussycat.ra
 4016c0 63636f6f 6e007265 696e6465 65720072  ccoon.reindeer.r
 4016d0 68656100 73636f72 70696f6e 00736561  hea.scorpion.sea
 4016e0 686f7273 65007365 616c0073 65616c69  horse.seal.seali
 4016f0 6f6e0073 6561736e 616b6500 73656177  on.seasnake.seaw
 401700 61737000 736b696d 6d657200 736b7561  asp.skimmer.skua
 401710 00736c6f 77776f72 6d00736c 75670073  .slowworm.slug.s
 401720 6f6c6500 73706172 726f7700 73717569  ole.sparrow.squi
 401730 7272656c 00737461 72666973 68007374  rrel.starfish.st
 401740 696e6772 61790073 77616e00 7465726d  ingray.swan.term
 401750 69746500 746f6164 00746f72 746f6973  ite.toad.tortois
 401760 65007475 61746172 61007475 6e610076  e.tuatara.tuna.v
 401770 616d7069 72650076 6f6c6500 76756c74  ampire.vole.vult
 401780 75726500 77616c6c 61627900 776f6c66  ure.wallaby.wolf
 401790 00777265 6e00666c 65612077 69746820  .wren.flea with 
 4017a0 74656574 68007072 65646174 6f722077  teeth.predator w
 4017b0 69746820 68616972 00736978 206c6567  ith hair.six leg
 4017c0 67656420 61717561 74696320 65676720  ged aquatic egg 
 4017d0 6c617965 72000000 4e756d62 6572206f  layer...Number o
 4017e0 66206461 7461706f 696e7473 3a202564  f datapoints: %d
 4017f0 2c204e75 6d626572 206f6620 66656174  , Number of feat
 401800 75726573 3a202564 0a0a0000 00000000  ures: %d........
 401810 50657266 6f726d61 6e636520 4d657472  Performance Metr
 401820 69637320 4f766572 204e203d 20256c6c  ics Over N = %ll
 401830 75205275 6e733a0a 00000000 00000000  u Runs:.........
 401840 54555242 4f204379 636c6573 2054616b  TURBO Cycles Tak
 401850 656e2066 6f722064 62736361 6e3a2025  en for dbscan: %
 401860 660a0000 00000000 54555242 4f204379  f.......TURBO Cy
 401870 636c6573 2054616b 656e2066 6f722064  cles Taken for d
 401880 69737461 6e63653a 2025660a 00000000  istance: %f.....
 401890 50657263 656e7461 6765206f 66204379  Percentage of Cy
 4018a0 636c6573 20537065 6e742043 616c6375  cles Spent Calcu
 4018b0 6c617469 6e672064 69737461 6e63653a  lating distance:
 4018c0 20252520 25660a00 44697374 616e6365   %% %f..Distance
 4018d0 20697320 63616c6c 65642025 64207469   is called %d ti
 4018e0 6d65732c 20656163 68206f66 20776869  mes, each of whi
 4018f0 63682074 616b6573 207e2566 20637963  ch takes ~%f cyc
 401900 6c65730a 00000000 41766572 61676520  les.....Average 
 401910 52445453 43204261 73652043 79636c65  RDTSC Base Cycle
 401920 73205461 6b656e20 666f7220 64627363  s Taken for dbsc
 401930 616e3a20 256c6c75 0a000000 00000000  an: %llu........
 401940 41766572 61676520 52445453 43204261  Average RDTSC Ba
 401950 73652043 79636c65 73205461 6b656e20  se Cycles Taken 
 401960 666f7220 64697374 616e6365 3a20256c  for distance: %l
 401970 6c750a00 00000000 44697374 616e6365  lu......Distance
 401980 20697320 63616c6c 65642025 6c6c7520   is called %llu 
 401990 74696d65 732c2065 61636820 6f662077  times, each of w
 4019a0 68696368 2074616b 6573207e 25662063  hich takes ~%f c
 4019b0 79636c65 730a0000 4e756d62 6572206f  ycles...Number o
 4019c0 66206f70 65726174 696f6e73 20706566  f operations pef
 4019d0 6f726d65 6420696e 20656163 68207275  ormed in each ru
 4019e0 6e206f66 20444253 43414e20 69732025  n of DBSCAN is %
 4019f0 6c6c750a 00000000 546f7461 6c206e75  llu.....Total nu
 401a00 6d626572 206f6620 6379636c 65732073  mber of cycles s
 401a10 70656e74 20696e20 74686520 636f7265  pent in the core
 401a20 20646973 74616e63 65206675 6e637469   distance functi
 401a30 6f6e2069 7320256c 6c750a00 00000000  on is %llu......
 401a40 00000000 00000000 33333333 3333fb3f  ........333333.?
 401a50 00000000 00005940 9a999999 99990940  ......Y@.......@
 401a60 33333333 33330340 00000000 00000840  333333.@.......@
Contents of section .eh_frame_hdr:
 401a70 011b033b 64000000 0b000000 10ebffff  ...;d...........
 401a80 b0000000 b0ebffff e8010000 dcf0ffff  ................
 401a90 80000000 d0f1ffff d8000000 30f4ffff  ............0...
 401aa0 f8000000 c0f6ffff 38010000 d0f6ffff  ........8.......
 401ab0 50010000 00f7ffff 68010000 f0f7ffff  P.......h.......
 401ac0 a8010000 20f9ffff 28020000 90f9ffff  .... ...(.......
 401ad0 70020000                             p...            
Contents of section .eh_frame:
 401ad8 14000000 00000000 017a5200 01781001  .........zR..x..
 401ae8 1b0c0708 90010710 14000000 1c000000  ................
 401af8 54f0ffff 2a000000 00000000 00000000  T...*...........
 401b08 14000000 00000000 017a5200 01781001  .........zR..x..
 401b18 1b0c0708 90010000 24000000 1c000000  ........$.......
 401b28 58eaffff a0000000 000e1046 0e184a0f  X..........F..J.
 401b38 0b770880 003f1a3b 2a332422 00000000  .w...?.;*3$"....
 401b48 1c000000 44000000 f0f0ffff 51020000  ....D.......Q...
 401b58 00034602 0e10490e 08000000 00000000  ..F...I.........
 401b68 3c000000 64000000 30f3ffff 82020000  <...d...0.......
 401b78 00420e10 8e02420e 188d034a 0e208c04  .B....B....J. ..
 401b88 440e2886 05410e30 83060359 020a0e28  D.(..A.0...Y...(
 401b98 410e2042 0e18420e 10450e08 410b0000  A. B..B..E..A...
 401ba8 14000000 a4000000 80f5ffff 05000000  ................
 401bb8 00000000 00000000 14000000 bc000000  ................
 401bc8 78f5ffff 26000000 00000000 00000000  x...&...........
 401bd8 3c000000 d4000000 90f5ffff e4000000  <...............
 401be8 00420e10 8d02420e 188c0348 0e208604  .B....B....H. ..
 401bf8 470e2883 05470e30 02ad0a0e 28410e20  G.(..G.0....(A. 
 401c08 410e1842 0e10420e 08430b00 00000000  A..B..B..C......
 401c18 3c000000 14010000 40f6ffff 2d010000  <.......@...-...
 401c28 00420e10 8e02480e 188d0345 0e208c04  .B....H....E. ..
 401c38 440e2886 05410e30 8306024f 0a0e2841  D.(..A.0...O..(A
 401c48 0e20420e 18450e10 420e0841 0b000000  . B..E..B..A....
 401c58 3c000000 54010000 c0e9ffff 2c050000  <...T.......,...
 401c68 00420e10 8d02420e 188c0344 0e208604  .B....B....D. ..
 401c78 430e2883 05440e40 0347040a 0e28430e  C.(..D.@.G...(C.
 401c88 20410e18 420e1042 0e08410b 00000000   A..B..B..A.....
 401c98 44000000 94010000 f0f6ffff 65000000  D...........e...
 401ca8 00420e10 8f02450e 188e0345 0e208d04  .B....E....E. ..
 401cb8 450e288c 05480e30 8606480e 3883074d  E.(..H.0..H.8..M
 401cc8 0e406c0e 38410e30 410e2842 0e20420e  .@l.8A.0A.(B. B.
 401cd8 18420e10 420e0800 14000000 dc010000  .B..B...........
 401ce8 18f7ffff 02000000 00000000 00000000  ................
 401cf8 00000000                             ....            
Contents of section .init_array:
 601e00 100c4000 00000000                    ..@.....        
Contents of section .fini_array:
 601e08 f00b4000 00000000                    ..@.....        
Contents of section .jcr:
 601e10 00000000 00000000                    ........        
Contents of section .dynamic:
 601e18 01000000 00000000 01000000 00000000  ................
 601e28 01000000 00000000 1f000000 00000000  ................
 601e38 0c000000 00000000 60054000 00000000  ........`.@.....
 601e48 0d000000 00000000 04144000 00000000  ..........@.....
 601e58 19000000 00000000 001e6000 00000000  ..........`.....
 601e68 1b000000 00000000 08000000 00000000  ................
 601e78 1a000000 00000000 081e6000 00000000  ..........`.....
 601e88 1c000000 00000000 08000000 00000000  ................
 601e98 f5feff6f 00000000 98024000 00000000  ...o......@.....
 601ea8 05000000 00000000 a8034000 00000000  ..........@.....
 601eb8 06000000 00000000 b8024000 00000000  ..........@.....
 601ec8 0a000000 00000000 6d000000 00000000  ........m.......
 601ed8 0b000000 00000000 18000000 00000000  ................
 601ee8 15000000 00000000 00000000 00000000  ................
 601ef8 03000000 00000000 00206000 00000000  ......... `.....
 601f08 02000000 00000000 d8000000 00000000  ................
 601f18 14000000 00000000 07000000 00000000  ................
 601f28 17000000 00000000 88044000 00000000  ..........@.....
 601f38 07000000 00000000 70044000 00000000  ........p.@.....
 601f48 08000000 00000000 18000000 00000000  ................
 601f58 09000000 00000000 18000000 00000000  ................
 601f68 feffff6f 00000000 30044000 00000000  ...o....0.@.....
 601f78 ffffff6f 00000000 02000000 00000000  ...o............
 601f88 f0ffff6f 00000000 16044000 00000000  ...o......@.....
 601f98 00000000 00000000 00000000 00000000  ................
 601fa8 00000000 00000000 00000000 00000000  ................
 601fb8 00000000 00000000 00000000 00000000  ................
 601fc8 00000000 00000000 00000000 00000000  ................
 601fd8 00000000 00000000 00000000 00000000  ................
 601fe8 00000000 00000000 00000000 00000000  ................
Contents of section .got:
 601ff8 00000000 00000000                    ........        
Contents of section .got.plt:
 602000 181e6000 00000000 00000000 00000000  ..`.............
 602010 00000000 00000000 96054000 00000000  ..........@.....
 602020 a6054000 00000000 b6054000 00000000  ..@.......@.....
 602030 c6054000 00000000 d6054000 00000000  ..@.......@.....
 602040 e6054000 00000000 f6054000 00000000  ..@.......@.....
 602050 06064000 00000000 16064000 00000000  ..@.......@.....
Contents of section .data:
 602060 00000000 00000000 00000000 00000000  ................
 602070 00000000 00000000 00000000 00000000  ................
 602080 00154000 00000000 0000803f 00000000  ..@........?....
 602090 00000000 0000803f 00000000 00000000  .......?........
 6020a0 0000803f 0000803f 0000803f 0000803f  ...?...?...?...?
 6020b0 00000000 00000000 00008040 00000000  ...........@....
 6020c0 00000000 0000803f 01000000 00000000  .......?........
 6020d0 09154000 00000000 0000803f 00000000  ..@........?....
 6020e0 00000000 0000803f 00000000 00000000  .......?........
 6020f0 00000000 0000803f 0000803f 0000803f  .......?...?...?
 602100 00000000 00000000 00008040 0000803f  ...........@...?
 602110 00000000 0000803f 01000000 00000000  .......?........
 602120 12154000 00000000 00000000 00000000  ..@.............
 602130 0000803f 00000000 00000000 0000803f  ...?...........?
 602140 0000803f 0000803f 0000803f 00000000  ...?...?...?....
 602150 00000000 0000803f 00000000 0000803f  .......?.......?
 602160 00000000 00000000 04000000 00000000  ................
 602170 17154000 00000000 0000803f 00000000  ..@........?....
 602180 00000000 0000803f 00000000 00000000  .......?........
 602190 0000803f 0000803f 0000803f 0000803f  ...?...?...?...?
 6021a0 00000000 00000000 00008040 00000000  ...........@....
 6021b0 00000000 0000803f 01000000 00000000  .......?........
 6021c0 1c154000 00000000 0000803f 00000000  ..@........?....
 6021d0 00000000 0000803f 00000000 00000000  .......?........
 6021e0 0000803f 0000803f 0000803f 0000803f  ...?...?...?...?
 6021f0 00000000 00000000 00008040 0000803f  ...........@...?
 602200 00000000 0000803f 01000000 00000000  .......?........
 602210 21154000 00000000 0000803f 00000000  !.@........?....
 602220 00000000 0000803f 00000000 00000000  .......?........
 602230 00000000 0000803f 0000803f 0000803f  .......?...?...?
 602240 00000000 00000000 00008040 0000803f  ...........@...?
 602250 00000000 0000803f 01000000 00000000  .......?........
 602260 29154000 00000000 0000803f 00000000  ).@........?....
 602270 00000000 0000803f 00000000 00000000  .......?........
 602280 00000000 0000803f 0000803f 0000803f  .......?...?...?
 602290 00000000 00000000 00008040 0000803f  ...........@...?
 6022a0 0000803f 0000803f 01000000 00000000  ...?...?........
 6022b0 2e154000 00000000 00000000 00000000  ..@.............
 6022c0 0000803f 00000000 00000000 0000803f  ...?...........?
 6022d0 00000000 0000803f 0000803f 00000000  .......?...?....
 6022e0 00000000 0000803f 00000000 0000803f  .......?.......?
 6022f0 0000803f 00000000 04000000 00000000  ...?............
 602300 33154000 00000000 00000000 00000000  3.@.............
 602310 0000803f 00000000 00000000 0000803f  ...?...........?
 602320 0000803f 0000803f 0000803f 00000000  ...?...?...?....
 602330 00000000 0000803f 00000000 0000803f  .......?.......?
 602340 00000000 00000000 04000000 00000000  ................
 602350 3b154000 00000000 0000803f 00000000  ;.@........?....
 602360 00000000 0000803f 00000000 00000000  .......?........
 602370 00000000 0000803f 0000803f 0000803f  .......?...?...?
 602380 00000000 00000000 00008040 00000000  ...........@....
 602390 0000803f 00000000 01000000 00000000  ...?............
 6023a0 40154000 00000000 0000803f 00000000  @.@........?....
 6023b0 00000000 0000803f 00000000 00000000  .......?........
 6023c0 0000803f 0000803f 0000803f 0000803f  ...?...?...?...?
 6023d0 00000000 00000000 00008040 0000803f  ...........@...?
 6023e0 00000000 0000803f 01000000 00000000  .......?........
 6023f0 48154000 00000000 00000000 0000803f  H.@............?
 602400 0000803f 00000000 0000803f 00000000  ...?.......?....
 602410 00000000 00000000 0000803f 0000803f  ...........?...?
 602420 00000000 00000000 00000040 0000803f  ...........@...?
 602430 0000803f 00000000 02000000 00000000  ...?............
 602440 50154000 00000000 00000000 00000000  P.@.............
 602450 0000803f 00000000 00000000 0000803f  ...?...........?
 602460 0000803f 0000803f 0000803f 00000000  ...?...?...?....
 602470 00000000 0000803f 00000000 0000803f  .......?.......?
 602480 00000000 00000000 04000000 00000000  ................
 602490 55154000 00000000 00000000 00000000  U.@.............
 6024a0 0000803f 00000000 00000000 0000803f  ...?...........?
 6024b0 0000803f 00000000 00000000 00000000  ...?............
 6024c0 00000000 00000000 00008040 00000000  ...........@....
 6024d0 00000000 00000000 07000000 00000000  ................
 6024e0 5a154000 00000000 00000000 00000000  Z.@.............
 6024f0 0000803f 00000000 00000000 0000803f  ...?...........?
 602500 0000803f 00000000 00000000 00000000  ...?............
 602510 00000000 00000000 0000c040 00000000  ...........@....
 602520 00000000 00000000 07000000 00000000  ................
 602530 63154000 00000000 00000000 0000803f  c.@............?
 602540 0000803f 00000000 0000803f 00000000  ...?.......?....
 602550 0000803f 00000000 0000803f 0000803f  ...?.......?...?
 602560 00000000 00000000 00000040 0000803f  ...........@...?
 602570 00000000 00000000 02000000 00000000  ................
 602580 ca164000 00000000 0000803f 00000000  ..@........?....
 602590 00000000 0000803f 00000000 00000000  .......?........
 6025a0 00000000 0000803f 0000803f 0000803f  .......?...?...?
 6025b0 00000000 00000000 00008040 0000803f  ...........@...?
 6025c0 00000000 0000803f 01000000 00000000  .......?........
 6025d0 68154000 00000000 00000000 00000000  h.@.............
 6025e0 0000803f 00000000 00000000 0000803f  ...?...........?
 6025f0 0000803f 0000803f 0000803f 00000000  ...?...?...?....
 602600 00000000 0000803f 00000000 0000803f  .......?.......?
 602610 00000000 0000803f 04000000 00000000  .......?........
 602620 70154000 00000000 00000000 00000000  p.@.............
 602630 00000000 0000803f 00000000 0000803f  .......?.......?
 602640 0000803f 0000803f 0000803f 0000803f  ...?...?...?...?
 602650 00000000 0000803f 00000000 0000803f  .......?.......?
 602660 00000000 0000803f 01000000 00000000  .......?........
 602670 78154000 00000000 00000000 0000803f  x.@............?
 602680 0000803f 00000000 0000803f 00000000  ...?.......?....
 602690 00000000 00000000 0000803f 0000803f  ...........?...?
 6026a0 00000000 00000000 00000040 0000803f  ...........@...?
 6026b0 0000803f 00000000 02000000 00000000  ...?............
 6026c0 7d154000 00000000 00000000 0000803f  }.@............?
 6026d0 0000803f 00000000 0000803f 0000803f  ...?.......?...?
 6026e0 00000000 00000000 0000803f 0000803f  ...........?...?
 6026f0 00000000 00000000 00000040 0000803f  ...........@...?
 602700 00000000 00000000 02000000 00000000  ................
 602710 82154000 00000000 0000803f 00000000  ..@........?....
 602720 00000000 0000803f 00000000 00000000  .......?........
 602730 00000000 0000803f 0000803f 0000803f  .......?...?...?
 602740 00000000 00000000 00008040 0000803f  ...........@...?
 602750 00000000 0000803f 01000000 00000000  .......?........
 602760 8b154000 00000000 00000000 0000803f  ..@............?
 602770 0000803f 00000000 0000803f 00000000  ...?.......?....
 602780 00000000 00000000 0000803f 0000803f  ...........?...?
 602790 00000000 00000000 00000040 0000803f  ...........@...?
 6027a0 00000000 0000803f 02000000 00000000  .......?........
 6027b0 94154000 00000000 00000000 00000000  ..@.............
 6027c0 0000803f 00000000 00000000 00000000  ...?............
 6027d0 00000000 00000000 00000000 0000803f  ...............?
 6027e0 00000000 00000000 0000c040 00000000  ...........@....
 6027f0 00000000 00000000 06000000 00000000  ................
 602800 99154000 00000000 00000000 00000000  ..@.............
 602810 0000803f 00000000 00000000 0000803f  ...?...........?
 602820 0000803f 0000803f 0000803f 0000803f  ...?...?...?...?
 602830 00000000 00000000 00008040 00000000  ...........@....
 602840 00000000 00000000 05000000 00000000  ................
 602850 99154000 00000000 00000000 00000000  ..@.............
 602860 0000803f 00000000 00000000 0000803f  ...?...........?
 602870 0000803f 0000803f 0000803f 0000803f  ...?...?...?...?
 602880 0000803f 00000000 00008040 00000000  ...?.......@....
 602890 00000000 00000000 05000000 00000000  ................
 6028a0 9e154000 00000000 0000803f 00000000  ..@........?....
 6028b0 00000000 0000803f 0000803f 00000000  .......?...?....
 6028c0 00000000 0000803f 0000803f 0000803f  .......?...?...?
 6028d0 00000000 00000000 00000040 0000803f  ...........@...?
 6028e0 00000000 00000000 01000000 00000000  ................
 6028f0 a7154000 00000000 0000803f 00000000  ..@........?....
 602900 00000000 0000803f 00000000 00000000  .......?........
 602910 00000000 0000803f 0000803f 0000803f  .......?...?...?
 602920 00000000 00000000 00008040 0000803f  ...........@...?
 602930 00000000 0000803f 01000000 00000000  .......?........
 602940 af154000 00000000 0000803f 00000000  ..@........?....
 602950 00000000 0000803f 00000000 00000000  .......?........
 602960 0000803f 0000803f 0000803f 0000803f  ...?...?...?...?
 602970 00000000 00000000 00000040 00000000  ...........@....
 602980 0000803f 0000803f 01000000 00000000  ...?...?........
 602990 b4154000 00000000 00000000 00000000  ..@.............
 6029a0 0000803f 00000000 0000803f 00000000  ...?.......?....
 6029b0 00000000 00000000 00000000 0000803f  ...............?
 6029c0 00000000 00000000 0000c040 00000000  ...........@....
 6029d0 00000000 00000000 06000000 00000000  ................
 6029e0 b9154000 00000000 0000803f 00000000  ..@........?....
 6029f0 00000000 0000803f 00000000 00000000  .......?........
 602a00 00000000 0000803f 0000803f 0000803f  .......?...?...?
 602a10 00000000 00000000 00008040 0000803f  ...........@...?
 602a20 0000803f 0000803f 01000000 00000000  ...?...?........
 602a30 be154000 00000000 0000803f 00000000  ..@........?....
 602a40 00000000 0000803f 00000000 00000000  .......?........
 602a50 00000000 0000803f 0000803f 0000803f  .......?...?...?
 602a60 00000000 00000000 00000040 00000000  ...........@....
 602a70 00000000 0000803f 01000000 00000000  .......?........
 602a80 c6154000 00000000 00000000 0000803f  ..@............?
 602a90 0000803f 00000000 0000803f 0000803f  ...?.......?...?
 602aa0 0000803f 00000000 0000803f 0000803f  ...?.......?...?
 602ab0 00000000 00000000 00000040 0000803f  ...........@...?
 602ac0 00000000 00000000 02000000 00000000  ................
 602ad0 cb154000 00000000 00000000 00000000  ..@.............
 602ae0 0000803f 00000000 00000000 0000803f  ...?...........?
 602af0 00000000 0000803f 0000803f 00000000  .......?...?....
 602b00 00000000 0000803f 00000000 0000803f  .......?.......?
 602b10 00000000 00000000 04000000 00000000  ................
 602b20 d3154000 00000000 0000803f 00000000  ..@........?....
 602b30 00000000 0000803f 00000000 00000000  .......?........
 602b40 00000000 0000803f 0000803f 0000803f  .......?...?...?
 602b50 00000000 00000000 00008040 0000803f  ...........@...?
 602b60 0000803f 00000000 01000000 00000000  ...?............
 602b70 db154000 00000000 0000803f 00000000  ..@........?....
 602b80 00000000 0000803f 00000000 00000000  .......?........
 602b90 00000000 0000803f 0000803f 0000803f  .......?...?...?
 602ba0 00000000 00000000 00008040 0000803f  ...........@...?
 602bb0 00000000 00000000 01000000 00000000  ................
 602bc0 e0154000 00000000 00000000 0000803f  ..@............?
 602bd0 0000803f 00000000 0000803f 00000000  ...?.......?....
 602be0 0000803f 00000000 0000803f 0000803f  ...?.......?...?
 602bf0 00000000 00000000 00000040 0000803f  ...........@...?
 602c00 00000000 00000000 02000000 00000000  ................
 602c10 e5154000 00000000 00000000 00000000  ..@.............
 602c20 0000803f 00000000 00000000 0000803f  ...?...........?
 602c30 0000803f 0000803f 0000803f 00000000  ...?...?...?....
 602c40 00000000 0000803f 00000000 0000803f  .......?.......?
 602c50 00000000 00000000 04000000 00000000  ................
 602c60 ed154000 00000000 0000803f 00000000  ..@........?....
 602c70 0000803f 00000000 0000803f 00000000  ...?.......?....
 602c80 00000000 00000000 00000000 0000803f  ...............?
 602c90 0000803f 00000000 0000c040 00000000  ...?.......@....
 602ca0 0000803f 00000000 06000000 00000000  ...?............
 602cb0 f6154000 00000000 0000803f 00000000  ..@........?....
 602cc0 0000803f 00000000 0000803f 00000000  ...?.......?....
 602cd0 00000000 00000000 00000000 0000803f  ...............?
 602ce0 00000000 00000000 0000c040 00000000  ...........@....
 602cf0 00000000 00000000 06000000 00000000  ................
 602d00 ff154000 00000000 00000000 0000803f  ..@............?
 602d10 0000803f 00000000 00000000 00000000  ...?............
 602d20 0000803f 00000000 0000803f 0000803f  ...?.......?...?
 602d30 00000000 00000000 00000040 0000803f  ...........@...?
 602d40 00000000 00000000 02000000 00000000  ................
 602d50 04164000 00000000 00000000 00000000  ..@.............
 602d60 0000803f 00000000 0000803f 00000000  ...?.......?....
 602d70 0000803f 00000000 00000000 0000803f  ...?...........?
 602d80 00000000 00000000 0000c040 00000000  ...........@....
 602d90 00000000 00000000 06000000 00000000  ................
 602da0 0d164000 00000000 00000000 0000803f  ..@............?
 602db0 0000803f 00000000 0000803f 00000000  ...?.......?....
 602dc0 00000000 00000000 0000803f 0000803f  ...........?...?
 602dd0 00000000 00000000 00000040 0000803f  ...........@...?
 602de0 00000000 00000000 02000000 00000000  ................
 602df0 12164000 00000000 0000803f 00000000  ..@........?....
 602e00 00000000 0000803f 00000000 00000000  .......?........
 602e10 0000803f 0000803f 0000803f 0000803f  ...?...?...?...?
 602e20 00000000 00000000 00008040 0000803f  ...........@...?
 602e30 00000000 0000803f 01000000 00000000  .......?........
 602e40 ee164000 00000000 0000803f 00000000  ..@........?....
 602e50 00000000 0000803f 00000000 00000000  .......?........
 602e60 0000803f 0000803f 0000803f 0000803f  ...?...?...?...?
 602e70 00000000 00000000 00008040 0000803f  ...........@...?
 602e80 00000000 0000803f 01000000 00000000  .......?........
 602e90 1a164000 00000000 00000000 00000000  ..@.............
 602ea0 0000803f 00000000 00000000 0000803f  ...?...........?
 602eb0 0000803f 00000000 00000000 00000000  ...?............
 602ec0 00000000 00000000 0000c040 00000000  ...........@....
 602ed0 00000000 00000000 07000000 00000000  ................
 602ee0 22164000 00000000 0000803f 00000000  ".@........?....
 602ef0 00000000 0000803f 00000000 00000000  .......?........
 602f00 0000803f 0000803f 0000803f 0000803f  ...?...?...?...?
 602f10 00000000 00000000 00008040 0000803f  ...........@...?
 602f20 00000000 0000803f 01000000 00000000  .......?........
 602f30 27164000 00000000 0000803f 00000000  '.@........?....
 602f40 00000000 0000803f 00000000 0000803f  .......?.......?
 602f50 0000803f 0000803f 0000803f 0000803f  ...?...?...?...?
 602f60 00000000 00000000 00008040 0000803f  ...........@...?
 602f70 00000000 0000803f 01000000 00000000  .......?........
 602f80 2c164000 00000000 0000803f 00000000  ,.@........?....
 602f90 00000000 0000803f 00000000 00000000  .......?........
 602fa0 0000803f 0000803f 0000803f 0000803f  ...?...?...?...?
 602fb0 00000000 00000000 00008040 0000803f  ...........@...?
 602fc0 00000000 00000000 01000000 00000000  ................
 602fd0 31164000 00000000 0000803f 00000000  1.@........?....
 602fe0 00000000 0000803f 00000000 00000000  .......?........
 602ff0 0000803f 0000803f 0000803f 0000803f  ...?...?...?...?
 603000 00000000 00000000 00008040 0000803f  ...........@...?
 603010 00000000 0000803f 01000000 00000000  .......?........
 603020 3a164000 00000000 0000803f 00000000  :.@........?....
 603030 0000803f 00000000 0000803f 00000000  ...?.......?....
 603040 00000000 00000000 00000000 0000803f  ...............?
 603050 00000000 00000000 0000c040 00000000  ...........@....
 603060 00000000 00000000 06000000 00000000  ................
 603070 3f164000 00000000 00000000 00000000  ?.@.............
 603080 0000803f 00000000 00000000 0000803f  ...?...........?
 603090 0000803f 0000803f 0000803f 0000803f  ...?...?...?...?
 6030a0 00000000 00000000 00008040 0000803f  ...........@...?
 6030b0 00000000 00000000 05000000 00000000  ................
 6030c0 44164000 00000000 00000000 00000000  D.@.............
 6030d0 0000803f 00000000 00000000 0000803f  ...?...........?
 6030e0 0000803f 00000000 00000000 00000000  ...?............
 6030f0 00000000 00000000 00000041 00000000  ...........A....
 603100 00000000 0000803f 07000000 00000000  .......?........
 603110 4c164000 00000000 0000803f 00000000  L.@........?....
 603120 00000000 0000803f 00000000 00000000  .......?........
 603130 0000803f 0000803f 0000803f 0000803f  ...?...?...?...?
 603140 00000000 00000000 00008040 0000803f  ...........@...?
 603150 00000000 00000000 01000000 00000000  ................
 603160 54164000 00000000 0000803f 00000000  T.@........?....
 603170 00000000 0000803f 00000000 00000000  .......?........
 603180 00000000 0000803f 0000803f 0000803f  .......?...?...?
 603190 00000000 00000000 00008040 0000803f  ...........@...?
 6031a0 00000000 0000803f 01000000 00000000  .......?........
 6031b0 59164000 00000000 00000000 0000803f  Y.@............?
 6031c0 0000803f 00000000 00000000 00000000  ...?............
 6031d0 00000000 00000000 0000803f 0000803f  ...........?...?
 6031e0 00000000 00000000 00000040 0000803f  ...........@...?
 6031f0 00000000 0000803f 02000000 00000000  .......?........
 603200 61164000 00000000 00000000 0000803f  a.@............?
 603210 0000803f 00000000 0000803f 00000000  ...?.......?....
 603220 00000000 00000000 0000803f 0000803f  ...........?...?
 603230 00000000 00000000 00000040 0000803f  ...........@...?
 603240 0000803f 00000000 02000000 00000000  ...?............
 603250 6a164000 00000000 00000000 0000803f  j.@............?
 603260 0000803f 00000000 00000000 0000803f  ...?...........?
 603270 0000803f 00000000 0000803f 0000803f  ...?.......?...?
 603280 00000000 00000000 00000040 0000803f  ...........@...?
 603290 00000000 0000803f 02000000 00000000  .......?........
 6032a0 72164000 00000000 00000000 0000803f  r.@............?
 6032b0 0000803f 00000000 0000803f 00000000  ...?.......?....
 6032c0 00000000 00000000 0000803f 0000803f  ...........?...?
 6032d0 00000000 00000000 00000040 0000803f  ...........@...?
 6032e0 00000000 00000000 02000000 00000000  ................
 6032f0 7b164000 00000000 00000000 00000000  {.@.............
 603300 0000803f 00000000 00000000 0000803f  ...?...........?
 603310 0000803f 0000803f 0000803f 00000000  ...?...?...?....
 603320 00000000 0000803f 00000000 0000803f  .......?.......?
 603330 00000000 0000803f 04000000 00000000  .......?........
 603340 80164000 00000000 00000000 00000000  ..@.............
 603350 0000803f 00000000 00000000 0000803f  ...?...........?
 603360 0000803f 0000803f 0000803f 00000000  ...?...?...?....
 603370 00000000 0000803f 00000000 0000803f  .......?.......?
 603380 00000000 00000000 04000000 00000000  ................
 603390 88164000 00000000 00000000 00000000  ..@.............
 6033a0 0000803f 00000000 00000000 00000000  ...?............
 6033b0 0000803f 0000803f 0000803f 0000803f  ...?...?...?...?
 6033c0 0000803f 00000000 00000000 0000803f  ...?...........?
 6033d0 00000000 00000000 03000000 00000000  ................
 6033e0 91164000 00000000 0000803f 00000000  ..@........?....
 6033f0 0000803f 0000803f 00000000 0000803f  ...?...?.......?
 603400 0000803f 00000000 0000803f 0000803f  ...?.......?...?
 603410 00000000 00000000 00008040 0000803f  ...........@...?
 603420 00000000 0000803f 01000000 00000000  .......?........
 603430 9a164000 00000000 0000803f 00000000  ..@........?....
 603440 00000000 0000803f 00000000 00000000  .......?........
 603450 0000803f 0000803f 0000803f 0000803f  ...?...?...?...?
 603460 00000000 00000000 00008040 0000803f  ...........@...?
 603470 00000000 0000803f 01000000 00000000  .......?........
 603480 a2164000 00000000 0000803f 00000000  ..@........?....
 603490 00000000 0000803f 00000000 00000000  .......?........
 6034a0 00000000 0000803f 0000803f 0000803f  .......?...?...?
 6034b0 00000000 00000000 00008040 0000803f  ...........@...?
 6034c0 0000803f 0000803f 01000000 00000000  ...?...?........
 6034d0 a7164000 00000000 00000000 00000000  ..@.............
 6034e0 00000000 0000803f 00000000 0000803f  .......?.......?
 6034f0 0000803f 0000803f 0000803f 0000803f  ...?...?...?...?
 603500 00000000 0000803f 00000000 0000803f  .......?.......?
 603510 00000000 0000803f 01000000 00000000  .......?........
 603520 b0164000 00000000 0000803f 00000000  ..@........?....
 603530 00000000 0000803f 00000000 00000000  .......?........
 603540 0000803f 0000803f 0000803f 0000803f  ...?...?...?...?
 603550 00000000 00000000 00008040 0000803f  ...........@...?
 603560 00000000 0000803f 01000000 00000000  .......?........
 603570 b5164000 00000000 0000803f 00000000  ..@........?....
 603580 00000000 0000803f 00000000 00000000  .......?........
 603590 0000803f 0000803f 0000803f 0000803f  ...?...?...?...?
 6035a0 00000000 00000000 00008040 0000803f  ...........@...?
 6035b0 0000803f 0000803f 01000000 00000000  ...?...?........
 6035c0 be164000 00000000 0000803f 00000000  ..@........?....
 6035d0 00000000 0000803f 00000000 00000000  .......?........
 6035e0 0000803f 0000803f 0000803f 0000803f  ...?...?...?...?
 6035f0 00000000 00000000 00008040 0000803f  ...........@...?
 603600 00000000 0000803f 01000000 00000000  .......?........
 603610 c6164000 00000000 0000803f 00000000  ..@........?....
 603620 00000000 0000803f 00000000 00000000  .......?........
 603630 00000000 0000803f 0000803f 0000803f  .......?...?...?
 603640 00000000 00000000 00008040 0000803f  ...........@...?
 603650 0000803f 0000803f 01000000 00000000  ...?...?........
 603660 cf164000 00000000 00000000 0000803f  ..@............?
 603670 0000803f 00000000 00000000 00000000  ...?............
 603680 0000803f 00000000 0000803f 0000803f  ...?.......?...?
 603690 00000000 00000000 00000040 0000803f  ...........@...?
 6036a0 00000000 0000803f 02000000 00000000  .......?........
 6036b0 d4164000 00000000 00000000 00000000  ..@.............
 6036c0 00000000 00000000 00000000 00000000  ................
 6036d0 0000803f 00000000 00000000 0000803f  ...?...........?
 6036e0 0000803f 00000000 00000041 0000803f  ...?.......A...?
 6036f0 00000000 00000000 07000000 00000000  ................
 603700 dd164000 00000000 00000000 00000000  ..@.............
 603710 0000803f 00000000 00000000 0000803f  ...?...........?
 603720 00000000 0000803f 0000803f 00000000  .......?...?....
 603730 00000000 0000803f 00000000 0000803f  .......?.......?
 603740 00000000 00000000 04000000 00000000  ................
 603750 e6164000 00000000 0000803f 00000000  ..@........?....
 603760 00000000 0000803f 00000000 0000803f  .......?.......?
 603770 0000803f 0000803f 0000803f 0000803f  ...?...?...?...?
 603780 00000000 0000803f 00000000 00000000  .......?........
 603790 00000000 0000803f 01000000 00000000  .......?........
 6037a0 eb164000 00000000 0000803f 00000000  ..@........?....
 6037b0 00000000 0000803f 00000000 0000803f  .......?.......?
 6037c0 0000803f 0000803f 0000803f 0000803f  ...?...?...?...?
 6037d0 00000000 0000803f 00000040 0000803f  .......?...@...?
 6037e0 00000000 0000803f 01000000 00000000  .......?........
 6037f0 f3164000 00000000 00000000 00000000  ..@.............
 603800 00000000 00000000 00000000 0000803f  ...............?
 603810 0000803f 0000803f 0000803f 00000000  ...?...?...?....
 603820 0000803f 00000000 00000000 0000803f  ...?...........?
 603830 00000000 00000000 03000000 00000000  ................
 603840 fc164000 00000000 00000000 00000000  ..@.............
 603850 0000803f 00000000 00000000 0000803f  ...?...........?
 603860 0000803f 00000000 00000000 00000000  ...?............
 603870 0000803f 00000000 00000000 00000000  ...?............
 603880 00000000 00000000 07000000 00000000  ................
 603890 04174000 00000000 00000000 0000803f  ..@............?
 6038a0 0000803f 00000000 0000803f 0000803f  ...?.......?...?
 6038b0 0000803f 00000000 0000803f 0000803f  ...?.......?...?
 6038c0 00000000 00000000 00000040 0000803f  ...........@...?
 6038d0 00000000 00000000 02000000 00000000  ................
 6038e0 0c174000 00000000 00000000 0000803f  ..@............?
 6038f0 0000803f 00000000 0000803f 0000803f  ...?.......?...?
 603900 0000803f 00000000 0000803f 0000803f  ...?.......?...?
 603910 00000000 00000000 00000040 0000803f  ...........@...?
 603920 00000000 00000000 02000000 00000000  ................
 603930 11174000 00000000 00000000 00000000  ..@.............
 603940 0000803f 00000000 00000000 00000000  ...?............
 603950 0000803f 0000803f 0000803f 0000803f  ...?...?...?...?
 603960 00000000 00000000 00000000 0000803f  ...............?
 603970 00000000 00000000 03000000 00000000  ................
 603980 1a174000 00000000 00000000 00000000  ..@.............
 603990 0000803f 00000000 00000000 00000000  ...?............
 6039a0 00000000 00000000 00000000 0000803f  ...............?
 6039b0 00000000 00000000 00000000 00000000  ................
 6039c0 00000000 00000000 07000000 00000000  ................
 6039d0 1f174000 00000000 00000000 00000000  ..@.............
 6039e0 0000803f 00000000 00000000 0000803f  ...?...........?
 6039f0 00000000 0000803f 0000803f 00000000  .......?...?....
 603a00 00000000 0000803f 00000000 0000803f  .......?.......?
 603a10 00000000 00000000 04000000 00000000  ................
 603a20 24174000 00000000 00000000 0000803f  $.@............?
 603a30 0000803f 00000000 0000803f 00000000  ...?.......?....
 603a40 00000000 00000000 0000803f 0000803f  ...........?...?
 603a50 00000000 00000000 00000040 0000803f  ...........@...?
 603a60 00000000 00000000 02000000 00000000  ................
 603a70 2c174000 00000000 0000803f 00000000  ,.@........?....
 603a80 00000000 0000803f 00000000 00000000  .......?........
 603a90 00000000 0000803f 0000803f 0000803f  .......?...?...?
 603aa0 00000000 00000000 00000040 0000803f  ...........@...?
 603ab0 00000000 00000000 01000000 00000000  ................
 603ac0 35174000 00000000 00000000 00000000  5.@.............
 603ad0 0000803f 00000000 00000000 0000803f  ...?...........?
 603ae0 0000803f 00000000 00000000 00000000  ...?............
 603af0 00000000 00000000 0000a040 00000000  ...........@....
 603b00 00000000 00000000 07000000 00000000  ................
 603b10 3e174000 00000000 00000000 00000000  >.@.............
 603b20 0000803f 00000000 00000000 0000803f  ...?...........?
 603b30 0000803f 0000803f 0000803f 00000000  ...?...?...?....
 603b40 0000803f 0000803f 00000000 0000803f  ...?...?.......?
 603b50 00000000 0000803f 04000000 00000000  .......?........
 603b60 47174000 00000000 00000000 0000803f  G.@............?
 603b70 0000803f 00000000 0000803f 0000803f  ...?.......?...?
 603b80 00000000 00000000 0000803f 0000803f  ...........?...?
 603b90 00000000 00000000 00000040 0000803f  ...........@...?
 603ba0 00000000 0000803f 02000000 00000000  .......?........
 603bb0 4c174000 00000000 00000000 00000000  L.@.............
 603bc0 0000803f 00000000 00000000 00000000  ...?............
 603bd0 00000000 00000000 00000000 0000803f  ...............?
 603be0 00000000 00000000 0000c040 00000000  ...........@....
 603bf0 00000000 00000000 06000000 00000000  ................
 603c00 54174000 00000000 00000000 00000000  T.@.............
 603c10 0000803f 00000000 00000000 0000803f  ...?...........?
 603c20 00000000 0000803f 0000803f 0000803f  .......?...?...?
 603c30 00000000 00000000 00008040 00000000  ...........@....
 603c40 00000000 00000000 05000000 00000000  ................
 603c50 59174000 00000000 00000000 00000000  Y.@.............
 603c60 0000803f 00000000 00000000 00000000  ...?............
 603c70 00000000 00000000 0000803f 0000803f  ...........?...?
 603c80 00000000 00000000 00008040 0000803f  ...........@...?
 603c90 00000000 0000803f 03000000 00000000  .......?........
 603ca0 62174000 00000000 00000000 00000000  b.@.............
 603cb0 0000803f 00000000 00000000 00000000  ...?............
 603cc0 0000803f 0000803f 0000803f 0000803f  ...?...?...?...?
 603cd0 00000000 00000000 00008040 0000803f  ...........@...?
 603ce0 00000000 00000000 03000000 00000000  ................
 603cf0 6a174000 00000000 00000000 00000000  j.@.............
 603d00 0000803f 00000000 00000000 0000803f  ...?...........?
 603d10 0000803f 0000803f 0000803f 00000000  ...?...?...?....
 603d20 00000000 0000803f 00000000 0000803f  .......?.......?
 603d30 00000000 0000803f 04000000 00000000  .......?........
 603d40 6f174000 00000000 0000803f 00000000  o.@........?....
 603d50 00000000 0000803f 0000803f 00000000  .......?...?....
 603d60 00000000 0000803f 0000803f 0000803f  .......?...?...?
 603d70 00000000 00000000 00000040 0000803f  ...........@...?
 603d80 00000000 00000000 01000000 00000000  ................
 603d90 77174000 00000000 0000803f 00000000  w.@........?....
 603da0 00000000 0000803f 00000000 00000000  .......?........
 603db0 00000000 0000803f 0000803f 0000803f  .......?...?...?
 603dc0 00000000 00000000 00008040 0000803f  ...........@...?
 603dd0 00000000 00000000 01000000 00000000  ................
 603de0 7c174000 00000000 00000000 0000803f  |.@............?
 603df0 0000803f 00000000 0000803f 00000000  ...?.......?....
 603e00 0000803f 00000000 0000803f 0000803f  ...?.......?...?
 603e10 00000000 00000000 00000040 0000803f  ...........@...?
 603e20 00000000 0000803f 02000000 00000000  .......?........
 603e30 84174000 00000000 0000803f 00000000  ..@........?....
 603e40 00000000 0000803f 00000000 00000000  .......?........
 603e50 00000000 0000803f 0000803f 0000803f  .......?...?...?
 603e60 00000000 00000000 00000040 0000803f  ...........@...?
 603e70 00000000 0000803f 01000000 00000000  .......?........
 603e80 ff164000 00000000 0000803f 00000000  ..@........?....
 603e90 0000803f 00000000 0000803f 00000000  ...?.......?....
 603ea0 00000000 00000000 00000000 0000803f  ...............?
 603eb0 0000803f 00000000 0000c040 00000000  ...?.......@....
 603ec0 00000000 00000000 06000000 00000000  ................
 603ed0 8c174000 00000000 0000803f 00000000  ..@........?....
 603ee0 00000000 0000803f 00000000 00000000  .......?........
 603ef0 0000803f 0000803f 0000803f 0000803f  ...?...?...?...?
 603f00 00000000 00000000 00008040 0000803f  ...........@...?
 603f10 00000000 0000803f 01000000 00000000  .......?........
 603f20 15174000 00000000 00000000 00000000  ..@.............
 603f30 0000803f 00000000 00000000 00000000  ...?............
 603f40 00000000 00000000 00000000 0000803f  ...............?
 603f50 00000000 00000000 00000000 00000000  ................
 603f60 00000000 00000000 07000000 00000000  ................
 603f70 91174000 00000000 00000000 0000803f  ..@............?
 603f80 0000803f 00000000 0000803f 00000000  ...?.......?....
 603f90 00000000 00000000 0000803f 0000803f  ...........?...?
 603fa0 00000000 00000000 00000040 0000803f  ...........@...?
 603fb0 00000000 00000000 02000000 00000000  ................
 603fc0 96174000 00000000 00000000 00000000  ..@.............
 603fd0 0000803f 00000000 00000000 00000000  ...?............
 603fe0 00000000 0000803f 00000000 0000803f  .......?.......?
 603ff0 00000000 00000000 0000c040 00000000  ...........@....
 604000 00000000 00000000 00000000 00000000  ................
 604010 a6174000 00000000 00000000 0000803f  ..@............?
 604020 00000000 00000000 00000000 00000000  ................
 604030 0000803f 00000000 00000000 00000000  ...?............
 604040 00000000 00000000 00000000 00000000  ................
 604050 00000000 00000000 00000000 00000000  ................
 604060 b9174000 00000000 00000000 00000000  ..@.............
 604070 0000803f 00000000 00000000 0000803f  ...?...........?
 604080 00000000 00000000 00000000 00000000  ................
 604090 00000000 00000000 0000c040 00000000  ...........@....
 6040a0 00000000 00000000 00000000 00000000  ................
Contents of section .comment:
 0000 4743433a 2028474e 55292034 2e382e35  GCC: (GNU) 4.8.5
 0010 20323031 35303632 33202852 65642048   20150623 (Red H
 0020 61742034 2e382e35 2d343429 00        at 4.8.5-44).   
Contents of section .debug_aranges:
 0000 3c000000 02000000 00000800 00000000  <...............
 0010 400c4000 00000000 4d070000 00000000  @.@.....M.......
 0020 20064000 00000000 2c050000 00000000   .@.....,.......
 0030 00000000 00000000 00000000 00000000  ................
Contents of section .debug_info:
 0000 ea0f0000 04000000 00000801 32010000  ............2...
 0010 01350200 00cb0000 00800400 00000000  .5..............
 0020 00000000 00000000 00020804 06010000  ................
 0030 0204047c 02000002 08058e00 0000032f  ...|.........../
 0040 00000002 d4490000 00020807 6e000000  .....I......n...
 0050 020108a5 02000002 0207c101 00000204  ................
 0060 07730000 00020106 a7020000 020205b3  .s..............
 0070 02000004 0405696e 74000307 00000003  ......int.......
 0080 8c370000 00032a03 0000038d 37000000  .7....*.....7...
 0090 0208072c 02000005 0806089f 00000002  ...,............
 00a0 0106ae02 0000076d 020000d8 04f62702  .......m......'.
 00b0 000008ac 00000004 f7730000 0000080f  .........s......
 00c0 00000004 fc990000 0008089f 00000004  ................
 00d0 fd990000 00100834 03000004 fe990000  .......4........
 00e0 001808bf 03000004 ff990000 00200996  ............. ..
 00f0 01000004 00019900 00002809 54020000  ..........(.T...
 0100 04010199 00000030 095c0000 00040201  .......0.\......
 0110 99000000 3809b300 00000403 01990000  ....8...........
 0120 004009e3 01000004 05019900 00004809  .@............H.
 0130 97030000 04060199 00000050 09420300  ...........P.B..
 0140 00040701 99000000 58098d02 00000409  ........X.......
 0150 015f0200 00600923 00000004 0b016502  ._...`.#......e.
 0160 00006809 97000000 040d0173 00000070  ..h........s...p
 0170 09fd0100 00041101 73000000 74090d01  ........s...t...
 0180 00000413 017a0000 007809bf 00000004  .....z...x......
 0190 17015700 00008009 e2020000 04180165  ..W............e
 01a0 00000082 09360000 00041901 6b020000  .....6......k...
 01b0 8309f701 0000041d 017b0200 00880911  .........{......
 01c0 01000004 26018500 00009009 54030000  ....&.......T...
 01d0 042f0197 00000098 095b0300 00043001  ./.......[....0.
 01e0 97000000 a0096203 00000431 01970000  ......b....1....
 01f0 00a80969 03000004 32019700 0000b009  ...i....2.......
 0200 70030000 0433013e 000000b8 09050200  p....3.>........
 0210 00043501 73000000 c0097703 00000437  ..5.s.....w....7
 0220 01810200 00c4000a 62020000 049b0721  ........b......!
 0230 01000018 04a15f02 00000824 03000004  ......_....$....
 0240 a25f0200 000008bb 01000004 a3650200  ._...........e..
 0250 00080882 02000004 a7730000 00100006  .........s......
 0260 082e0200 000608a6 0000000b 9f000000  ................
 0270 7b020000 0c900000 00000006 08270200  {............'..
 0280 000b9f00 00009102 00000c90 00000013  ................
 0290 00060897 0200000d 9f000000 02080589  ................
 02a0 00000007 40000000 50011de0 02000008  ....@...P.......
 02b0 a4010000 011e9900 00000008 1a020000  ................
 02c0 011fe002 00000808 87020000 01207300  ............. s.
 02d0 00004808 f1010000 01217300 00004c00  ..H......!s...L.
 02e0 0b300000 00f00200 000c9000 00000f00  .0..............
 02f0 03400000 000122a3 0200000e 0f030000  .@....".........
 0300 a0010124 21030000 08fa0200 00012573  ...$!.........%s
 0310 00000000 08f10200 00012621 03000004  ..........&!....
 0320 000b7300 00003103 00000c90 00000066  ..s...1........f
 0330 00030f03 00000127 fb020000 0f090300  .......'........
 0340 00010861 03000003 61030000 10686900  ...a....a....hi.
 0350 01095e00 0000106c 6f000109 5e000000  ..^....lo...^...
 0360 00020807 69000000 11ce0300 0001ec01  ....i...........
 0370 96030000 12800000 0001ec96 03000012  ................
 0380 d3030000 01ec9603 00001310 690001ee  ............i...
 0390 73000000 00000608 31030000 11450200  s.......1....E..
 03a0 0001e501 b4030000 12d30300 0001e596  ................
 03b0 03000000 141b0300 0001be29 00000001  ...........)....
 03c0 ef030000 15690001 be730000 00156a00  .....i...s....j.
 03d0 01be7300 00001073 756d0001 c0290000  ..s....sum...)..
 03e0 0013168e 01000001 c4730000 00000017  .........s......
 03f0 b4030000 400c4000 00000000 51020000  ....@.@.....Q...
 0400 00000000 019ca604 000018c4 03000000  ................
 0410 00000018 cd030000 39000000 19d60300  ........9.......
 0420 00720000 001a3c03 0000470c 40000000  .r....<...G.@...
 0430 00000000 000001c3 55040000 1b000000  ........U.......
 0440 00194c03 00009d01 00001956 030000c0  ..L........V....
 0450 01000000 001c4000 00006804 000019e2  ......@...h.....
 0460 030000e3 01000000 1a3c0300 00480e40  .........<...H.@
 0470 00000000 00b00000 0001c898 0400001b  ................
 0480 b0000000 194c0300 00470300 00195603  .....L...G....V.
 0490 00006a03 00000000 1d8b0e40 00000000  ..j........@....
 04a0 00550f00 00001e96 02000001 d0960300  .U..............
 04b0 00a00e40 00000000 00820200 00000000  ...@............
 04c0 00019ce6 0500001f 8b030000 01d07300  ..............s.
 04d0 0000a003 000020f1 02000001 d2960300  ...... .........
 04e0 00ff0300 001ce000 0000b105 00002169  ..............!i
 04f0 0001d673 0000005b 04000022 b4030000  ...s...[..."....
 0500 cd0e4000 00000000 10010000 01da18cd  ..@.............
 0510 030000ba 04000018 c4030000 f0040000  ................
 0520 1b100100 0019d603 00002605 00001c50  ..........&....P
 0530 01000041 05000019 e2030000 c9050000  ...A............
 0540 001a3c03 0000f00e 40000000 0000e001  ..<.....@.......
 0550 000001c3 71050000 1be00100 00194c03  ....q.........L.
 0560 00004107 00001956 03000064 07000000  ..A....V...d....
 0570 001a3c03 0000aa10 40000000 00003002  ..<.....@.....0.
 0580 000001c8 a1050000 1b300200 00194c03  .........0....L.
 0590 00008707 00001956 030000aa 07000000  .......V........
 05a0 001d2011 40000000 0000550f 00000000  .. .@.....U.....
 05b0 0023bd0e 40000000 00006a0f 0000ca05  .#..@.....j.....
 05c0 00002401 55030aa0 010025cd 0e400000  ..$.U.....%..@..
 05d0 00000080 0f000024 0155027e 00240154  .......$.U.~.$.T
 05e0 030aa001 0000179c 03000030 11400000  ...........0.@..
 05f0 00000005 00000000 00000001 9c200600  ............. ..
 0600 0018a803 0000e007 00002635 11400000  ..........&5.@..
 0610 00000096 0f000024 015503f3 01550000  .......$.U...U..
 0620 17680300 00401140 00000000 00260000  .h...@.@.....&..
 0630 00000000 00019c65 06000027 74030000  .......e...'t...
 0640 0155277f 03000001 54284811 40000000  .U'.....T(H.@...
 0650 00001c00 00000000 0000198b 03000019  ................
 0660 08000000 00114a00 000001fa 01a10600  ......J.........
 0670 0012ac03 000001fa 73000000 12800000  ........s.......
 0680 0001fa96 03000013 10690001 fd730000  .........i...s..
 0690 001329d3 03000001 0f019603 00000000  ..).............
 06a0 00176506 00007011 40000000 0000e400  ..e...p.@.......
 06b0 00000000 0000019c 72070000 18710600  ........r....q..
 06c0 003d0800 00187c06 00008908 00001b60  .=....|........`
 06d0 02000019 88060000 e8080000 1bb00200  ................
 06e0 00199206 00009509 00002a68 03000000  ..........*h....
 06f0 12400000 00000022 00000000 00000001  .@....."........
 0700 13012807 00002b7f 0300002b 74030000  ..(...+....+t...
 0710 28001240 00000000 00220000 00000000  (..@....."......
 0720 002c8b03 00000000 2a9c0300 00221240  .,......*....".@
 0730 00000000 00080000 00000000 00011601  ................
 0740 5b070000 18a80300 00b80900 001d2a12  [.............*.
 0750 40000000 0000960f 00000025 f4114000  @..........%..@.
 0760 00000000 a6040000 24015502 767f0000  ........$.U.v...
 0770 00002dcc 02000001 1e017300 00006012  ..-.......s...`.
 0780 40000000 00002d01 00000000 0000019c  @.....-.........
 0790 1d090000 2e0b0200 00012001 73000000  .......... .s...
 07a0 db090000 1b000300 002f6900 01220173  ........./i..".s
 07b0 00000038 0a00001b 40030000 2ed30300  ...8....@.......
 07c0 00012601 96030000 aa0a0000 309c0300  ..&.........0...
 07d0 00a51240 00000000 00800300 00012b01  ...@..........+.
 07e0 02080000 18a80300 00060b00 0025b812  .............%..
 07f0 40000000 0000960f 00002401 55027300  @.........$.U.s.
 0800 00003065 060000d2 12400000 000000b0  ..0e.....@......
 0810 03000001 3201cc08 0000277c 06000001  ....2.....'|....
 0820 53277106 0000015c 1bb00300 00198806  S'q....\........
 0830 00003c0b 00001bf0 03000019 92060000  ..<.............
 0840 c20b0000 2a680300 00401340 00000000  ....*h...@.@....
 0850 00220000 00000000 00011301 82080000  ."..............
 0860 2b7f0300 002b7403 00002840 13400000  +....+t...(@.@..
 0870 00000022 00000000 0000002c 8b030000  ...".......,....
 0880 00002a9c 03000062 13400000 00000008  ..*....b.@......
 0890 00000000 00000001 1601b508 000018a8  ................
 08a0 030000e5 0b00001d 6a134000 00000000  ........j.@.....
 08b0 960f0000 00253913 40000000 0000a604  .....%9.@.......
 08c0 00002401 5502767f 00000000 2a9c0300  ..$.U.v.....*...
 08d0 00731340 00000000 000d0000 00000000  .s.@............
 08e0 00013401 06090000 18a80300 00080c00  ..4.............
 08f0 00257b13 40000000 0000960f 00002401  .%{.@.........$.
 0900 55027300 0000259d 12400000 000000a6  U.s...%..@......
 0910 04000024 0155027c 00000000 002dba03  ...$.U.|.....-..
 0920 0000013b 01730000 00200640 00000000  ...;.s... .@....
 0930 002c0500 00000000 00019cc6 0e00002e  .,..............
 0940 84030000 013d0161 0300002b 0c00002f  .....=.a...+.../
 0950 73740001 3e016103 0000750c 00002f65  st..>.a...u.../e
 0960 7400013f 01610300 00750c00 002ebd02  t..?.a...u......
 0970 00000140 01290000 00990c00 002e2302  ...@.)........#.
 0980 00000142 01730000 001c0d00 00312a00  ...B.s.......1*.
 0990 00000145 01610300 00641c20 04000065  ...E.a...d. ...e
 09a0 0a00002f 69000146 01610300 00650d00  .../i..F.a...e..
 09b0 002a3c03 00003006 40000000 00000e00  .*<...0.@.......
 09c0 00000000 00000148 01f20900 00283006  .......H.....(0.
 09d0 40000000 00000e00 00000000 0000194c  @..............L
 09e0 0300009c 0d000019 56030000 bf0d0000  ........V.......
 09f0 00002a3c 03000046 06400000 0000000b  ..*<...F.@......
 0a00 00000000 00000001 4a01330a 00002846  ........J.3...(F
 0a10 06400000 0000000b 00000000 00000019  .@..............
 0a20 4c030000 e20d0000 19560300 00050e00  L........V......
 0a30 00000032 57064000 00000000 2b000000  ...2W.@.....+...
 0a40 00000000 570a0000 2f6a0001 4d017300  ....W.../j..M.s.
 0a50 00004e0e 0000001d 43064000 00000000  ..N.....C.@.....
 0a60 72070000 001c5004 0000f80a 00002e87  r.....P.........
 0a70 02000001 57017300 00009a0e 000032ec  ....W.s.......2.
 0a80 06400000 0000002d 00000000 000000bf  .@.....-........
 0a90 0a00002f 6f627300 015a0173 000000f9  .../obs..Z.s....
 0aa0 0e000025 10074000 00000000 a80f0000  ...%..@.........
 0ab0 24015509 03311440 00000000 00000023  $.U..1.@.......#
 0ac0 db064000 00000000 a80f0000 e40a0000  ..@.............
 0ad0 24015509 03261440 00000000 00240154  $.U..&.@.....$.T
 0ae0 02760000 25260740 00000000 00bf0f00  .v..%&.@........
 0af0 00240155 013a0000 32440740 00000000  .$.U.:..2D.@....
 0b00 002e0000 00000000 00390b00 002f6f62  .........9.../ob
 0b10 73000166 01730000 001d0f00 00256907  s..f.s.......%i.
 0b20 40000000 0000a80f 00002401 55090331  @.........$.U..1
 0b30 14400000 00000000 00233a07 40000000  .@.......#:.@...
 0b40 0000d80f 0000580b 00002401 55090320  ......X...$.U.. 
 0b50 14400000 00000000 237c0740 00000000  .@......#|.@....
 0b60 00bf0f00 006f0b00 00240155 013a0023  .....o...$.U.:.#
 0b70 86074000 00000000 d80f0000 8e0b0000  ..@.............
 0b80 24015509 033c1440 00000000 0000239c  $.U..<.@......#.
 0b90 07400000 000000a8 0f0000b8 0b000024  .@.............$
 0ba0 01550903 d8174000 00000000 24015402  .U....@.....$.T.
 0bb0 08672401 51014000 23ad0740 00000000  .g$.Q.@.#..@....
 0bc0 00a80f00 00dd0b00 00240155 09031018  .........$.U....
 0bd0 40000000 00002401 54020864 0023bc07  @.....$.T..d.#..
 0be0 40000000 0000a80f 0000020c 00002401  @.............$.
 0bf0 55090310 19400000 00000024 0154027c  U....@.....$.T.|
 0c00 000023cf 07400000 000000a8 0f000021  ..#..@.........!
 0c10 0c000024 01550903 48194000 00000000  ...$.U..H.@.....
 0c20 0023f307 40000000 0000a80f 0000610c  .#..@.........a.
 0c30 00002401 55090340 18400000 00000024  ..$.U..@.@.....$
 0c40 01611d77 00f60829 f429089a 99999999  .a.w...).)......
 0c50 9909401e f4290833 33333333 3303401b  ..@..).333333.@.
 0c60 00232708 40000000 0000a80f 0000800c  .#'.@...........
 0c70 00002401 55090368 18400000 00000000  ..$.U..h.@......
 0c80 233c0840 00000000 00a80f00 00a80c00  #<.@............
 0c90 00240155 09039018 40000000 00002401  .$.U....@.....$.
 0ca0 61059148 f6082900 237f0840 00000000  a..H..).#..@....
 0cb0 00a80f00 00c70c00 00240155 0903c818  .........$.U....
 0cc0 40000000 00000023 89084000 00000000  @......#..@.....
 0cd0 d80f0000 e60c0000 24015509 034d1440  ........$.U..M.@
 0ce0 00000000 000023a5 08400000 000000a8  ......#..@......
 0cf0 0f00000b 0d000024 01550903 08194000  .......$.U....@.
 0d00 00000000 24015402 73000023 c9084000  ....$.T.s..#..@.
 0d10 00000000 a80f0000 2a0d0000 24015509  ........*...$.U.
 0d20 03401940 00000000 000023ed 08400000  .@.@......#..@..
 0d30 000000a8 0f00006b 0d000024 01550903  .......k...$.U..
 0d40 40184000 00000000 2401611e 7300f737  @.@.....$.a.s..7
 0d50 f729f429 089a9999 99999909 401ef429  .).)........@..)
 0d60 08333333 33333303 401b0023 26094000  .333333.@..#&.@.
 0d70 00000000 a80f0000 8a0d0000 24015509  ............$.U.
 0d80 03681840 00000000 0000233b 09400000  .h.@......#;.@..
 0d90 000000a8 0f0000b2 0d000024 01550903  ...........$.U..
 0da0 90184000 00000000 24016105 9148f608  ..@.....$.a..H..
 0db0 29002389 09400000 000000a8 0f0000d1  ).#..@..........
 0dc0 0d000024 01550903 78194000 00000000  ...$.U..x.@.....
 0dd0 00239309 40000000 0000d80f 0000f00d  .#..@...........
 0de0 00002401 5509036b 14400000 00000000  ..$.U..k.@......
 0df0 239d0940 00000000 00d80f00 000f0e00  #..@............
 0e00 00240155 09037e14 40000000 00000023  .$.U..~.@......#
 0e10 a7094000 00000000 d80f0000 2e0e0000  ..@.............
 0e20 24015509 03971440 00000000 000023b1  $.U....@......#.
 0e30 09400000 000000d8 0f00004d 0e000024  .@.........M...$
 0e40 01550903 b2144000 00000000 0023d609  .U....@......#..
 0e50 40000000 0000a80f 00006c0e 00002401  @.........l...$.
 0e60 550903b8 19400000 00000000 23fa0940  U....@......#..@
 0e70 00000000 00a80f00 008b0e00 00240155  .............$.U
 0e80 0903f819 40000000 00000023 320a4000  ....@......#2.@.
 0e90 00000000 a80f0000 aa0e0000 24015509  ............$.U.
 0ea0 03c91440 00000000 00002572 0a400000  ...@......%r.@..
 0eb0 000000a8 0f000024 01550903 e4144000  .......$.U....@.
 0ec0 00000000 0000332c 01000005 a8650200  ......3,.....e..
 0ed0 00331302 000005a9 65020000 0bf00200  .3......e.......
 0ee0 00ec0e00 000c9000 00006600 34190100  ..........f.4...
 0ef0 000146dc 0e000009 03802060 00000000  ..F....... `....
 0f00 0034d401 000001b8 73000000 0903e040  .4......s......@
 0f10 60000000 00003487 01000001 b9610300  `.....4......a..
 0f20 000903d0 40600000 00000034 3e020000  ....@`.....4>...
 0f30 01ba6103 00000903 c8406000 00000000  ..a......@`.....
 0f40 34800300 0001bb61 03000009 03c04060  4......a......@`
 0f50 00000000 0035a703 0000069d 29000000  .....5......)...
 0f60 6a0f0000 36290000 0000371c 00000007  j...6)....7.....
 0f70 d1019700 0000800f 0000363e 00000000  ..........6>....
 0f80 38760200 00082f96 0f000036 97000000  8v..../....6....
 0f90 363e0000 0000394f 03000007 e201a80f  6>....9O........
 0fa0 00003697 00000000 37000000 00056a01  ..6.....7.....j.
 0fb0 73000000 bf0f0000 36910200 003a003b  s.......6....:.;
 0fc0 a9010000 0900b301 00007300 0000d80f  ..........s.....
 0fd0 00003673 00000000 3cd30200 000900dd  ..6s....<.......
 0fe0 02000073 00000036 91020000 0000      ...s...6......  
Contents of section .debug_abbrev:
 0000 01110125 0e130b03 0e1b0e55 17110110  ...%.......U....
 0010 17000002 24000b0b 3e0b030e 00000316  ....$...>.......
 0020 00030e3a 0b3b0b49 13000004 24000b0b  ...:.;.I....$...
 0030 3e0b0308 0000050f 000b0b00 00060f00  >...............
 0040 0b0b4913 00000713 01030e0b 0b3a0b3b  ..I..........:.;
 0050 0b011300 00080d00 030e3a0b 3b0b4913  ..........:.;.I.
 0060 380b0000 090d0003 0e3a0b3b 05491338  8........:.;.I.8
 0070 0b00000a 1600030e 3a0b3b0b 00000b01  ........:.;.....
 0080 01491301 1300000c 21004913 2f0b0000  .I......!.I./...
 0090 0d260049 1300000e 1301030e 0b053a0b  .&.I..........:.
 00a0 3b0b0113 00000f2e 01030e3a 0b3b0b27  ;..........:.;.'
 00b0 19491320 0b011300 00103400 03083a0b  .I. ......4...:.
 00c0 3b0b4913 0000112e 013f1903 0e3a0b3b  ;.I......?...:.;
 00d0 0b271920 0b011300 00120500 030e3a0b  .'. ..........:.
 00e0 3b0b4913 0000130b 01000014 2e013f19  ;.I...........?.
 00f0 030e3a0b 3b0b2719 4913200b 01130000  ..:.;.'.I. .....
 0100 15050003 083a0b3b 0b491300 00163400  .....:.;.I....4.
 0110 030e3a0b 3b0b4913 0000172e 01311311  ..:.;.I......1..
 0120 01120740 18974219 01130000 18050031  ...@..B........1
 0130 13021700 00193400 31130217 00001a1d  ......4.1.......
 0140 01311352 01551758 0b590b01 1300001b  .1.R.U.X.Y......
 0150 0b015517 00001c0b 01551701 1300001d  ..U......U......
 0160 89820100 11013113 00001e2e 013f1903  ......1......?..
 0170 0e3a0b3b 0b271949 13110112 07401897  .:.;.'.I.....@..
 0180 42190113 00001f05 00030e3a 0b3b0b49  B..........:.;.I
 0190 13021700 00203400 030e3a0b 3b0b4913  ..... 4...:.;.I.
 01a0 02170000 21340003 083a0b3b 0b491302  ....!4...:.;.I..
 01b0 17000022 1d013113 52015517 580b590b  ..."..1.R.U.X.Y.
 01c0 00002389 82010111 01311301 13000024  ..#......1.....$
 01d0 8a820100 02189142 18000025 89820101  .......B...%....
 01e0 11013113 00002689 82010111 01954219  ..1...&.......B.
 01f0 31130000 27050031 13021800 00280b01  1...'..1.....(..
 0200 11011207 00002934 00030e3a 0b3b0549  ......)4...:.;.I
 0210 1300002a 1d013113 11011207 580b5905  ...*..1.....X.Y.
 0220 01130000 2b050031 1300002c 34003113  ....+..1...,4.1.
 0230 00002d2e 013f1903 0e3a0b3b 05271949  ..-..?...:.;.'.I
 0240 13110112 07401897 42190113 00002e34  .....@..B......4
 0250 00030e3a 0b3b0549 13021700 002f3400  ...:.;.I...../4.
 0260 03083a0b 3b054913 02170000 301d0131  ..:.;.I.....0..1
 0270 13520155 17580b59 05011300 00313400  .R.U.X.Y.....14.
 0280 030e3a0b 3b054913 1c0b0000 320b0111  ..:.;.I.....2...
 0290 01120701 13000033 3400030e 3a0b3b0b  .......34...:.;.
 02a0 49133f19 3c190000 34340003 0e3a0b3b  I.?.<...44...:.;
 02b0 0b49133f 19021800 00352e01 3f19030e  .I.?.....5..?...
 02c0 3a0b3b0b 27194913 3c190113 00003605  :.;.'.I.<.....6.
 02d0 00491300 00372e01 3f19030e 3a0b3b05  .I...7..?...:.;.
 02e0 27194913 3c190113 0000382e 013f1903  '.I.<.....8..?..
 02f0 0e3a0b3b 0b27193c 19011300 00392e01  .:.;.'.<.....9..
 0300 3f19030e 3a0b3b05 27193c19 01130000  ?...:.;.'.<.....
 0310 3a180000 003b2e01 3f19030e 3a0b3b0b  :....;..?...:.;.
 0320 6e0e2719 49133c19 01130000 3c2e013f  n.'.I.<.....<..?
 0330 19030e3a 0b3b0b6e 0e271949 133c1900  ...:.;.n.'.I.<..
 0340 0000                                 ..              
Contents of section .debug_line:
 0000 a8020000 0200d000 00000101 fb0e0d00  ................
 0010 01010101 00000001 0000012f 7573722f  .........../usr/
 0020 6c69622f 6763632f 7838365f 36342d72  lib/gcc/x86_64-r
 0030 65646861 742d6c69 6e75782f 342e382e  edhat-linux/4.8.
 0040 352f696e 636c7564 65002f75 73722f69  5/include./usr/i
 0050 6e636c75 64652f62 69747300 2f757372  nclude/bits./usr
 0060 2f696e63 6c756465 00006462 7363616e  /include..dbscan
 0070 2e630000 00007374 64646566 2e680001  .c....stddef.h..
 0080 00007479 7065732e 68000200 006c6962  ..types.h....lib
 0090 696f2e68 00030000 73746469 6f2e6800  io.h....stdio.h.
 00a0 0300006d 61746863 616c6c73 2e680002  ...mathcalls.h..
 00b0 00007374 646c6962 2e680003 00007374  ..stdlib.h....st
 00c0 72696e67 732e6800 0300003c 6275696c  rings.h....<buil
 00d0 742d696e 3e000000 00000009 02400c40  t-in>........@.@
 00e0 00000000 0003be01 011403c9 7e742f03  ............~t/.
 00f0 bb013c03 c57e3c03 bb016603 c57e7403  ..<..~<...f..~t.
 0100 bb013c7f 7703c47e 02da0301 03bc012e  ..<.w..~........
 0110 03c57e4a 03bd0190 769aa49f 2d03734a  ..~J....v...-.sJ
 0120 030d4a59 084e7557 3139755a 803e0372  ..JY.NuW19uZ.>.r
 0130 58031208 2e036990 03c97e74 03bc012e  X.....i...~t....
 0140 03c57e82 03bb013c 03c57e4a 03bb0166  ..~....<..~J...f
 0150 03c57e82 03bb013c 557703c4 7e028c03  ..~....<Uw..~...
 0160 0103bc01 2e03c57e 4a03bd01 90769aa4  .......~J....v..
 0170 030e9ed8 910379ba 030c9e03 6aba031a  ......y.....j...
 0180 088213f8 018584b6 030982be 030b7403  ..............t.
 0190 754a2203 092e0375 4a08bfb0 3a76085c  uJ"....uJ...:v.\
 01a0 4f845608 3e5a035f ba84b603 79d60316  O.V.>Z._....y...
 01b0 82031e90 036dc856 0319089e 9f3b3139  .....m.V.....;19
 01c0 d9d87684 3a3e03bf 7f2e033b 3c5203bd  ..v.:>.....;<R..
 01d0 7f74033b 90031666 0378ba03 4d4a0333  .t.;...f.x..MJ.3
 01e0 2e035008 9eb03a76 085c4f76 56a05a03  ..P...:v.\OvV.Z.
 01f0 5f7484b6 0379d603 1682036a 900321c8  _t...y.....j..!.
 0200 56020800 01010009 02200640 00000000  V........ .@....
 0210 0003bb02 014b3b03 0a200376 2e03ce7d  .....K;.. .v...}
 0220 662f03be 02ba03c1 7d822f03 c0029069  f/......}./....i
 0230 6908b603 7982030e 66022d15 7fd93008  i...y...f.-...0.
 0240 d7924c08 62970376 58030a3c 03765803  ..L.b..vX..<.vX.
 0250 0e580883 925a0862 97a19f08 5b0813e5  .X...Z.b....[...
 0260 08300224 13023414 084b0229 17fb93a0  .0.$..4..K.)....
 0270 08ad0224 14022413 02391408 4b024e15  ...$..$..9..K.N.
 0280 9f9fa19f 02251302 24130238 13024015  .....%..$..8..@.
 0290 03bd7fc8 0325024b 01031b08 90088f03  .....%.K........
 02a0 75089003 74089002 1a000101           u...t.......    
Contents of section .debug_str:
 0000 7072696e 7466005f 5f6f6666 5f74005f  printf.__off_t._
 0010 494f5f72 6561645f 70747200 6d616c6c  IO_read_ptr.mall
 0020 6f63005f 63686169 6e007275 6e730073  oc._chain.runs.s
 0030 697a655f 74005f73 686f7274 62756600  ize_t._shortbuf.
 0040 64617461 7365745f 74007072 6f636573  dataset_t.proces
 0050 735f6e65 69676862 6f727300 5f494f5f  s_neighbors._IO_
 0060 6275665f 62617365 006c6f6e 67206c6f  buf_base.long lo
 0070 6e672075 6e736967 6e656420 696e7400  ng unsigned int.
 0080 73656564 5f736574 006c6f6e 67206c6f  seed_set.long lo
 0090 6e672069 6e74005f 66696c65 6e6f005f  ng int._fileno._
 00a0 494f5f72 6561645f 656e6400 5f666c61  IO_read_end._fla
 00b0 6773005f 494f5f62 75665f65 6e64005f  gs._IO_buf_end._
 00c0 6375725f 636f6c75 6d6e002f 6166732f  cur_column./afs/
 00d0 616e6472 65772e63 6d752e65 64752f75  andrew.cmu.edu/u
 00e0 73723233 2f637265 6e67616e 612f7072  sr23/crengana/pr
 00f0 69766174 652f6462 7363616e 5f666173  ivate/dbscan_fas
 0100 74636f64 6500646f 75626c65 005f6f6c  tcode.double._ol
 0110 645f6f66 66736574 00646174 61736574  d_offset.dataset
 0120 005f494f 5f6d6172 6b657200 73746469  ._IO_marker.stdi
 0130 6e00474e 55204320 342e382e 35203230  n.GNU C 4.8.5 20
 0140 31353036 32332028 52656420 48617420  150623 (Red Hat 
 0150 342e382e 352d3434 29202d6d 74756e65  4.8.5-44) -mtune
 0160 3d67656e 65726963 202d6d61 7263683d  =generic -march=
 0170 7838362d 3634202d 67202d4f 33202d73  x86-64 -g -O3 -s
 0180 74643d63 39390064 73745f73 74006665  td=c99.dst_st.fe
 0190 61747572 65005f49 4f5f7772 6974655f  ature._IO_write_
 01a0 70747200 6e616d65 005f5f62 75696c74  ptr.name.__built
 01b0 696e5f70 75746368 6172005f 73627566  in_putchar._sbuf
 01c0 0073686f 72742075 6e736967 6e656420  .short unsigned 
 01d0 696e7400 6473745f 63616c6c 5f636f75  int.dst_call_cou
 01e0 6e74005f 494f5f73 6176655f 62617365  nt._IO_save_base
 01f0 006c6162 656c005f 6c6f636b 005f666c  .label._lock._fl
 0200 61677332 005f6d6f 64650063 6c757374  ags2._mode.clust
 0210 65720073 74646f75 74006665 61747572  er.stdout.featur
 0220 65730063 6c757374 65727300 73697a65  es.clusters.size
 0230 74797065 00646273 63616e2e 63006473  type.dbscan.c.ds
 0240 745f6574 00667265 655f6e65 69676862  t_et.free_neighb
 0250 6f727300 5f494f5f 77726974 655f656e  ors._IO_write_en
 0260 64005f49 4f5f6c6f 636b5f74 005f494f  d._IO_lock_t._IO
 0270 5f46494c 4500627a 65726f00 666c6f61  _FILE.bzero.floa
 0280 74005f70 6f730063 6c617373 005f6d61  t._pos.class._ma
 0290 726b6572 73006669 6e645f6e 65696768  rkers.find_neigh
 02a0 626f7273 00756e73 69676e65 64206368  bors.unsigned ch
 02b0 61720073 686f7274 20696e74 00647374  ar.short int.dst
 02c0 5f706572 63656e74 61676500 64627363  _percentage.dbsc
 02d0 616e005f 5f627569 6c74696e 5f707574  an.__builtin_put
 02e0 73005f76 7461626c 655f6f66 66736574  s._vtable_offset
 02f0 006e6569 6768626f 72006e65 69676862  .neighbor.neighb
 0300 6f725f63 6f756e74 00726474 7363006e  or_count.rdtsc.n
 0310 65696768 626f7273 5f740064 69737461  eighbors_t.dista
 0320 6e636500 5f6e6578 74005f5f 6f666636  nce._next.__off6
 0330 345f7400 5f494f5f 72656164 5f626173  4_t._IO_read_bas
 0340 65005f49 4f5f7361 76655f65 6e640066  e._IO_save_end.f
 0350 72656500 5f5f7061 6431005f 5f706164  ree.__pad1.__pad
 0360 32005f5f 70616433 005f5f70 61643400  2.__pad3.__pad4.
 0370 5f5f7061 6435005f 756e7573 65643200  __pad5._unused2.
 0380 6473745f 6379636c 6573006f 62736572  dst_cycles.obser
 0390 76617469 6f6e005f 494f5f62 61636b75  vation._IO_backu
 03a0 705f6261 73650073 71727400 696e6974  p_base.sqrt.init
 03b0 69616c5f 706f696e 74006d61 696e005f  ial_point.main._
 03c0 494f5f77 72697465 5f626173 6500666f  IO_write_base.fo
 03d0 6c645f6e 65696768 626f7273 00        ld_neighbors.   
Contents of section .debug_loc:
 0000 400c4000 00000000 7c0e4000 00000000  @.@.....|.@.....
 0010 0100557c 0e400000 00000091 0e400000  ..U|.@.......@..
 0020 00000004 00f30155 9f000000 00000000  .......U........
 0030 00000000 00000000 00400c40 00000000  .........@.@....
 0040 007c0e40 00000000 00010054 7c0e4000  .|.@.......T|.@.
 0050 00000000 910e4000 00000000 0400f301  ......@.........
 0060 549f0000 00000000 00000000 00000000  T...............
 0070 0000400c 40000000 0000ae0c 40000000  ..@.@.......@...
 0080 00000a00 9e080000 00000000 0000ae0c  ................
 0090 40000000 0000480e 40000000 00000100  @.....H.@.......
 00a0 62480e40 00000000 004e0e40 00000000  bH.@.....N.@....
 00b0 000e00f5 1130f511 301ef729 f5122922  .....0..0..)..)"
 00c0 9f4e0e40 00000000 007c0e40 00000000  .N.@.....|.@....
 00d0 00540072 0003c420 60000000 000022f6  .T.r... `.....".
 00e0 04307400 32247400 22342403 c4206000  .0t.2$t."4$.. `.
 00f0 00000000 22f60430 1c720003 c4206000  ...."..0.r... `.
 0100 00000000 22f60430 74003224 74002234  ...."..0t.2$t."4
 0110 2403c420 60000000 000022f6 04301c1e  $.. `....."..0..
 0120 f729f512 29229f7e 0e400000 0000008a  .)..)".~.@......
 0130 0e400000 00000054 00720003 c4206000  .@.....T.r... `.
 0140 00000000 22f60430 74003224 74002234  ...."..0t.2$t."4
 0150 2403c420 60000000 000022f6 04301c72  $.. `....."..0.r
 0160 0003c420 60000000 000022f6 04307400  ... `....."..0t.
 0170 32247400 22342403 c4206000 00000000  2$t."4$.. `.....
 0180 22f60430 1c1ef729 f5122922 9f000000  "..0...)..)"....
 0190 00000000 00000000 00000000 00490c40  .............I.@
 01a0 00000000 004a0e40 00000000 00010051  .....J.@.......Q
 01b0 00000000 00000000 00000000 00000000  ................
 01c0 490c4000 00000000 630c4000 00000000  I.@.....c.@.....
 01d0 01005000 00000000 00000000 00000000  ..P.............
 01e0 0000006e 0c400000 000000ae 0c400000  ...n.@.......@..
 01f0 00000002 00309fae 0c400000 000000b2  .....0...@......
 0200 0c400000 00000002 00319fb2 0c400000  .@.......1...@..
 0210 000000d0 0c400000 00000002 00329fd0  .....@.......2..
 0220 0c400000 000000ee 0c400000 00000002  .@.......@......
 0230 00339fee 0c400000 0000000c 0d400000  .3...@.......@..
 0240 00000002 00349f0c 0d400000 0000002a  .....4...@.....*
 0250 0d400000 00000002 00359f2a 0d400000  .@.......5.*.@..
 0260 00000048 0d400000 00000002 00369f48  ...H.@.......6.H
 0270 0d400000 00000066 0d400000 00000002  .@.....f.@......
 0280 00379f66 0d400000 00000084 0d400000  .7.f.@.......@..
 0290 00000002 00389f84 0d400000 000000a2  .....8...@......
 02a0 0d400000 00000002 00399fa2 0d400000  .@.......9...@..
 02b0 000000c0 0d400000 00000002 003a9fc0  .....@.......:..
 02c0 0d400000 000000de 0d400000 00000002  .@.......@......
 02d0 003b9fde 0d400000 000000fc 0d400000  .;...@.......@..
 02e0 00000002 003c9ffc 0d400000 0000001a  .....<...@......
 02f0 0e400000 00000002 003d9f1a 0e400000  .@.......=...@..
 0300 00000038 0e400000 00000002 003e9f38  ...8.@.......>.8
 0310 0e400000 00000048 0e400000 00000002  .@.....H.@......
 0320 003f9f48 0e400000 00000091 0e400000  .?.H.@.......@..
 0330 00000002 00409f00 00000000 00000000  .....@..........
 0340 00000000 0000004a 0e400000 00000052  .......J.@.....R
 0350 0e400000 00000001 00510000 00000000  .@.......Q......
 0360 00000000 00000000 00004a0e 40000000  ..........J.@...
 0370 00007c0e 40000000 00000100 507e0e40  ..|.@.......P~.@
 0380 00000000 008a0e40 00000000 00010050  .......@.......P
 0390 00000000 00000000 00000000 00000000  ................
 03a0 a00e4000 00000000 ac0e4000 00000000  ..@.......@.....
 03b0 010055ac 0e400000 00000011 11400000  ..U..@.......@..
 03c0 00000001 005d1111 40000000 00001711  .....]..@.......
 03d0 40000000 00000400 f301559f 17114000  @.........U...@.
 03e0 00000000 22114000 00000000 01005d00  ....".@.......].
 03f0 00000000 00000000 00000000 000000c8  ................
 0400 0e400000 000000cc 0e400000 00000001  .@.......@......
 0410 0050cc0e 40000000 00001611 40000000  .P..@.......@...
 0420 00000100 5e161140 00000000 00171140  ....^..@.......@
 0430 00000000 00010050 17114000 00000000  .......P..@.....
 0440 22114000 00000000 01005e00 00000000  ".@.......^.....
 0450 00000000 00000000 000000cd 0e400000  .............@..
 0460 000000d8 0e400000 00000002 00309fd8  .....@.......0..
 0470 0e400000 000000f9 10400000 00000001  .@.......@......
 0480 005cf910 40000000 0000fd10 40000000  .\..@.......@...
 0490 00000300 7c019f17 11400000 00000022  ....|....@....."
 04a0 11400000 00000001 005c0000 00000000  .@.......\......
 04b0 00000000 00000000 0000e90e 40000000  ............@...
 04c0 0000f910 40000000 00000100 5c171140  ....@.......\..@
 04d0 00000000 00221140 00000000 0001005c  .....".@.......\
 04e0 00000000 00000000 00000000 00000000  ................
 04f0 e90e4000 00000000 f9104000 00000000  ..@.......@.....
 0500 01005d17 11400000 00000022 11400000  ..]..@.....".@..
 0510 00000001 005d0000 00000000 00000000  .....]..........
 0520 00000000 0000e90e 40000000 00003a0f  ........@.....:.
 0530 40000000 00000a00 9e080000 00000000  @...............
 0540 00003a0f 40000000 0000aa10 40000000  ..:.@.......@...
 0550 00000100 62aa1040 00000000 00b01040  ....b..@.......@
 0560 00000000 000e00f5 1130f511 301ef729  .........0..0..)
 0570 f5122922 9fb01040 00000000 00d41040  ..)"...@.......@
 0580 00000000 00320076 0003c420 60000000  .....2.v... `...
 0590 000022f6 0430733c f604301c 760003c4  .."..0s<..0.v...
 05a0 20600000 00000022 f6043073 3cf60430   `....."..0s<..0
 05b0 1c1ef729 f5122922 9f000000 00000000  ...)..)"........
 05c0 00000000 00000000 001e0f40 00000000  ...........@....
 05d0 003a0f40 00000000 00020030 9f3a0f40  .:.@.......0.:.@
 05e0 00000000 003e0f40 00000000 00020031  .....>.@.......1
 05f0 9f3e0f40 00000000 00590f40 00000000  .>.@.....Y.@....
 0600 00020032 9f590f40 00000000 00740f40  ...2.Y.@.....t.@
 0610 00000000 00020033 9f740f40 00000000  .......3.t.@....
 0620 008f0f40 00000000 00020034 9f8f0f40  ...@.......4...@
 0630 00000000 00aa0f40 00000000 00020035  .......@.......5
 0640 9faa0f40 00000000 00c50f40 00000000  ...@.......@....
 0650 00020036 9fc50f40 00000000 00e00f40  ...6...@.......@
 0660 00000000 00020037 9fe00f40 00000000  .......7...@....
 0670 00fb0f40 00000000 00020038 9ffb0f40  ...@.......8...@
 0680 00000000 00161040 00000000 00020039  .......@.......9
 0690 9f161040 00000000 00311040 00000000  ...@.....1.@....
 06a0 0002003a 9f311040 00000000 004c1040  ...:.1.@.....L.@
 06b0 00000000 0002003b 9f4c1040 00000000  .......;.L.@....
 06c0 00671040 00000000 0002003c 9f671040  .g.@.......<.g.@
 06d0 00000000 00821040 00000000 0002003d  .......@.......=
 06e0 9f821040 00000000 009d1040 00000000  ...@.......@....
 06f0 0002003e 9f9d1040 00000000 00aa1040  ...>...@.......@
 0700 00000000 0002003f 9faa1040 00000000  .......?...@....
 0710 00f91040 00000000 00020040 9f171140  ...@.......@...@
 0720 00000000 00221140 00000000 00020040  .....".@.......@
 0730 9f000000 00000000 00000000 00000000  ................
 0740 00f20e40 00000000 00ac1040 00000000  ...@.......@....
 0750 00010051 00000000 00000000 00000000  ...Q............
 0760 00000000 f20e4000 00000000 ac104000  ......@.......@.
 0770 00000000 01005000 00000000 00000000  ......P.........
 0780 00000000 000000ac 10400000 000000b4  .........@......
 0790 10400000 00000001 00510000 00000000  .@.......Q......
 07a0 00000000 00000000 0000ac10 40000000  ............@...
 07b0 0000de10 40000000 00000100 50171140  ....@.......P..@
 07c0 00000000 001f1140 00000000 00010050  .......@.......P
 07d0 00000000 00000000 00000000 00000000  ................
 07e0 30114000 00000000 34114000 00000000  0.@.....4.@.....
 07f0 01005534 11400000 00000035 11400000  ..U4.@.....5.@..
 0800 00000004 00f30155 9f000000 00000000  .......U........
 0810 00000000 00000000 00401140 00000000  .........@.@....
 0820 00421140 00000000 00020030 9f000000  .B.@.......0....
 0830 00000000 00000000 00000000 00701140  .............p.@
 0840 00000000 008a1140 00000000 00010055  .......@.......U
 0850 8a114000 00000000 3b124000 00000000  ..@.....;.@.....
 0860 01005c3b 12400000 00000054 12400000  ..\;.@.....T.@..
 0870 00000004 00f30155 9f000000 00000000  .......U........
 0880 00000000 00000000 00701140 00000000  .........p.@....
 0890 008a1140 00000000 00010054 8a114000  ...@.......T..@.
 08a0 00000000 38124000 00000000 01005338  ....8.@.......S8
 08b0 12400000 0000003e 12400000 00000004  .@.....>.@......
 08c0 00f30154 9f3e1240 00000000 00541240  ...T.>.@.....T.@
 08d0 00000000 00010053 00000000 00000000  .......S........
 08e0 00000000 00000000 70114000 00000000  ........p.@.....
 08f0 8a114000 00000000 0200309f 8a114000  ..@.......0...@.
 0900 00000000 db114000 00000000 010056db  ......@.......V.
 0910 11400000 000000f3 11400000 00000001  .@.......@......
 0920 0055f311 40000000 00002212 40000000  .U..@.....".@...
 0930 00000300 767f9f2a 12400000 00000039  ....v..*.@.....9
 0940 12400000 00000001 00563e12 40000000  .@.......V>.@...
 0950 00004312 40000000 00000100 56431240  ..C.@.......VC.@
 0960 00000000 00451240 00000000 00030076  .....E.@.......v
 0970 7f9f4512 40000000 00005412 40000000  ..E.@.....T.@...
 0980 00000100 56000000 00000000 00000000  ....V...........
 0990 00000000 00f41140 00000000 00291240  .......@.....).@
 09a0 00000000 00010050 00000000 00000000  .......P........
 09b0 00000000 00000000 22124000 00000000  ........".@.....
 09c0 29124000 00000000 01005000 00000000  ).@.......P.....
 09d0 00000000 00000000 00000060 12400000  ...........`.@..
 09e0 00000076 12400000 00000002 00309f76  ...v.@.......0.v
 09f0 12400000 000000cb 12400000 00000001  .@.......@......
 0a00 005dcb12 40000000 0000ce12 40000000  .]..@.......@...
 0a10 00000100 50ce1240 00000000 008d1340  ....P..@.......@
 0a20 00000000 0001005d 00000000 00000000  .......]........
 0a30 00000000 00000000 60124000 00000000  ........`.@.....
 0a40 76124000 00000000 0200309f 76124000  v.@.......0.v.@.
 0a50 00000000 ac124000 00000000 01005cac  ......@.......\.
 0a60 12400000 000000b8 12400000 00000003  .@.......@......
 0a70 007c7f9f b8124000 00000000 c6124000  .|....@.......@.
 0a80 00000000 01005cce 12400000 0000008d  ......\..@......
 0a90 13400000 00000001 005c0000 00000000  .@.......\......
 0aa0 00000000 00000000 0000a312 40000000  ............@...
 0ab0 0000b712 40000000 00000100 50b71240  ....@.......P..@
 0ac0 00000000 00c21240 00000000 00010053  .......@.......S
 0ad0 ce124000 00000000 d7124000 00000000  ..@.......@.....
 0ae0 010050d7 12400000 0000008d 13400000  ..P..@.......@..
 0af0 00000001 00530000 00000000 00000000  .....S..........
 0b00 00000000 0000b312 40000000 0000b712  ........@.......
 0b10 40000000 00000100 50b71240 00000000  @.......P..@....
 0b20 00c21240 00000000 00010053 00000000  ...@.......S....
 0b30 00000000 00000000 00000000 d7124000  ..............@.
 0b40 00000000 2a134000 00000000 0100562a  ....*.@.......V*
 0b50 13400000 00000038 13400000 00000001  .@.....8.@......
 0b60 00553813 40000000 00006213 40000000  .U8.@.....b.@...
 0b70 00000300 767f9f6a 13400000 00000083  ....v..j.@......
 0b80 13400000 00000001 00568313 40000000  .@.......V..@...
 0b90 00008513 40000000 00000300 767f9f85  ....@.......v...
 0ba0 13400000 0000008d 13400000 00000001  .@.......@......
 0bb0 00560000 00000000 00000000 00000000  .V..............
 0bc0 00003913 40000000 00006913 40000000  ..9.@.....i.@...
 0bd0 00000100 50000000 00000000 00000000  ....P...........
 0be0 00000000 00621340 00000000 00691340  .....b.@.....i.@
 0bf0 00000000 00010050 00000000 00000000  .......P........
 0c00 00000000 00000000 73134000 00000000  ........s.@.....
 0c10 80134000 00000000 01005300 00000000  ..@.......S.....
 0c20 00000000 00000000 00000020 06400000  ........... .@..
 0c30 0000002f 06400000 00000002 00309f2f  .../.@.......0./
 0c40 06400000 0000007c 0a400000 00000001  .@.....|.@......
 0c50 005c7f0a 40000000 00004c0b 40000000  .\..@.....L.@...
 0c60 00000100 5c000000 00000000 00000000  ....\...........
 0c70 00000000 00200640 00000000 002f0640  ..... .@...../.@
 0c80 00000000 00020030 9f000000 00000000  .......0........
 0c90 00000000 00000000 00200640 00000000  ......... .@....
 0ca0 00cb0640 00000000 000a009e 08000000  ...@............
 0cb0 00000000 00cb0640 00000000 00cd0640  .......@.......@
 0cc0 00000000 00010061 cd064000 00000000  .......a..@.....
 0cd0 7f0a4000 00000000 02009148 7f0a4000  ..@........H..@.
 0ce0 00000000 ca0a4000 00000000 0a009e08  ......@.........
 0cf0 00000000 00000000 ca0a4000 00000000  ..........@.....
 0d00 4c0b4000 00000000 02009148 00000000  L.@........H....
 0d10 00000000 00000000 00000000 46064000  ............F.@.
 0d20 00000000 48064000 00000000 01005048  ....H.@.......PH
 0d30 06400000 0000007e 0a400000 00000001  .@.....~.@......
 0d40 005d7f0a 40000000 00004c0b 40000000  .]..@.....L.@...
 0d50 00000100 5d000000 00000000 00000000  ....]...........
 0d60 00000000 00200640 00000000 002f0640  ..... .@...../.@
 0d70 00000000 00020030 9f2f0640 00000000  .......0./.@....
 0d80 00880640 00000000 00010056 00000000  ...@.......V....
 0d90 00000000 00000000 00000000 32064000  ............2.@.
 0da0 00000000 42064000 00000000 01005100  ....B.@.......Q.
 0db0 00000000 00000000 00000000 00000032  ...............2
 0dc0 06400000 00000042 06400000 00000001  .@.....B.@......
 0dd0 00500000 00000000 00000000 00000000  .P..............
 0de0 00004806 40000000 00004c06 40000000  ..H.@.....L.@...
 0df0 00000100 51000000 00000000 00000000  ....Q...........
 0e00 00000000 00480640 00000000 006c0640  .....H.@.....l.@
 0e10 00000000 00010050 88064000 00000000  .......P..@.....
 0e20 9d064000 00000000 0100507f 0a400000  ..@.......P..@..
 0e30 00000082 0a400000 00000001 00500000  .....@.......P..
 0e40 00000000 00000000 00000000 00005706  ..............W.
 0e50 40000000 00006706 40000000 00000200  @.....g.@.......
 0e60 309f6706 40000000 00006c06 40000000  0.g.@.....l.@...
 0e70 00000200 319f8806 40000000 00004c0b  ....1...@.....L.
 0e80 40000000 00000200 309f0000 00000000  @.......0.......
 0e90 00000000 00000000 0000cb06 40000000  ............@...
 0ea0 0000cd06 40000000 00000200 319fcd06  ....@.......1...
 0eb0 40000000 00002107 40000000 00000100  @.....!.@.......
 0ec0 56210740 00000000 00260740 00000000  V!.@.....&.@....
 0ed0 00030076 7f9f2607 40000000 00002b07  ...v..&.@.....+.
 0ee0 40000000 00000100 56000000 00000000  @.......V.......
 0ef0 00000000 00000000 00db0640 00000000  ...........@....
 0f00 00e20640 00000000 00020030 9f000000  ...@.......0....
 0f10 00000000 00000000 00000000 003a0740  .............:.@
 0f20 00000000 003c0740 00000000 00020030  .....<.@.......0
 0f30 9f000000 00000000 00000000 00000000  ................
 0f40 00                                   .               
Contents of section .debug_ranges:
 0000 470c4000 00000000 4c0c4000 00000000  G.@.....L.@.....
 0010 4f0c4000 00000000 550c4000 00000000  O.@.....U.@.....
 0020 5c0c4000 00000000 5f0c4000 00000000  \.@....._.@.....
 0030 00000000 00000000 00000000 00000000  ................
 0040 4c0c4000 00000000 4f0c4000 00000000  L.@.....O.@.....
 0050 550c4000 00000000 5c0c4000 00000000  U.@.....\.@.....
 0060 5f0c4000 00000000 670c4000 00000000  _.@.....g.@.....
 0070 6e0c4000 00000000 480e4000 00000000  n.@.....H.@.....
 0080 4a0e4000 00000000 4e0e4000 00000000  J.@.....N.@.....
 0090 680e4000 00000000 720e4000 00000000  h.@.....r.@.....
 00a0 00000000 00000000 00000000 00000000  ................
 00b0 480e4000 00000000 4a0e4000 00000000  H.@.....J.@.....
 00c0 4e0e4000 00000000 570e4000 00000000  N.@.....W.@.....
 00d0 00000000 00000000 00000000 00000000  ................
 00e0 cd0e4000 00000000 0b114000 00000000  ..@.......@.....
 00f0 17114000 00000000 22114000 00000000  ..@.....".@.....
 0100 00000000 00000000 00000000 00000000  ................
 0110 cd0e4000 00000000 e00e4000 00000000  ..@.......@.....
 0120 e90e4000 00000000 de104000 00000000  ..@.......@.....
 0130 17114000 00000000 22114000 00000000  ..@.....".@.....
 0140 00000000 00000000 00000000 00000000  ................
 0150 cd0e4000 00000000 e00e4000 00000000  ..@.......@.....
 0160 f20e4000 00000000 fa0e4000 00000000  ..@.......@.....
 0170 fd0e4000 00000000 010f4000 00000000  ..@.......@.....
 0180 070f4000 00000000 0f0f4000 00000000  ..@.......@.....
 0190 120f4000 00000000 170f4000 00000000  ..@.......@.....
 01a0 1e0f4000 00000000 aa104000 00000000  ..@.......@.....
 01b0 ac104000 00000000 b0104000 00000000  ..@.......@.....
 01c0 ca104000 00000000 d4104000 00000000  ..@.......@.....
 01d0 00000000 00000000 00000000 00000000  ................
 01e0 f00e4000 00000000 f20e4000 00000000  ..@.......@.....
 01f0 fa0e4000 00000000 fd0e4000 00000000  ..@.......@.....
 0200 010f4000 00000000 070f4000 00000000  ..@.......@.....
 0210 0f0f4000 00000000 120f4000 00000000  ..@.......@.....
 0220 00000000 00000000 00000000 00000000  ................
 0230 aa104000 00000000 ac104000 00000000  ..@.......@.....
 0240 b0104000 00000000 b9104000 00000000  ..@.......@.....
 0250 00000000 00000000 00000000 00000000  ................
 0260 77114000 00000000 7b114000 00000000  w.@.....{.@.....
 0270 7c114000 00000000 82114000 00000000  |.@.......@.....
 0280 9f114000 00000000 33124000 00000000  ..@.....3.@.....
 0290 40124000 00000000 54124000 00000000  @.@.....T.@.....
 02a0 00000000 00000000 00000000 00000000  ................
 02b0 77114000 00000000 7b114000 00000000  w.@.....{.@.....
 02c0 7e114000 00000000 82114000 00000000  ~.@.......@.....
 02d0 aa114000 00000000 2a124000 00000000  ..@.....*.@.....
 02e0 40124000 00000000 54124000 00000000  @.@.....T.@.....
 02f0 00000000 00000000 00000000 00000000  ................
 0300 6f124000 00000000 72124000 00000000  o.@.....r.@.....
 0310 80124000 00000000 c2124000 00000000  ..@.......@.....
 0320 ce124000 00000000 8d134000 00000000  ..@.......@.....
 0330 00000000 00000000 00000000 00000000  ................
 0340 8e124000 00000000 a8124000 00000000  ..@.......@.....
 0350 ac124000 00000000 bc124000 00000000  ..@.......@.....
 0360 ce124000 00000000 8d134000 00000000  ..@.......@.....
 0370 00000000 00000000 00000000 00000000  ................
 0380 a5124000 00000000 a8124000 00000000  ..@.......@.....
 0390 b3124000 00000000 bc124000 00000000  ..@.......@.....
 03a0 00000000 00000000 00000000 00000000  ................
 03b0 d2124000 00000000 d4124000 00000000  ..@.......@.....
 03c0 ef124000 00000000 73134000 00000000  ..@.....s.@.....
 03d0 80134000 00000000 8d134000 00000000  ..@.......@.....
 03e0 00000000 00000000 00000000 00000000  ................
 03f0 fa124000 00000000 6a134000 00000000  ..@.....j.@.....
 0400 80134000 00000000 8d134000 00000000  ..@.......@.....
 0410 00000000 00000000 00000000 00000000  ................
 0420 28064000 00000000 2a064000 00000000  (.@.....*.@.....
 0430 30064000 00000000 88064000 00000000  0.@.......@.....
 0440 00000000 00000000 00000000 00000000  ................
 0450 b5064000 00000000 bd064000 00000000  ..@.......@.....
 0460 cb064000 00000000 2b074000 00000000  ..@.....+.@.....
 0470 00000000 00000000 00000000 00000000  ................
 0480 400c4000 00000000 8d134000 00000000  @.@.......@.....
 0490 20064000 00000000 4c0b4000 00000000   .@.....L.@.....
 04a0 00000000 00000000 00000000 00000000  ................

Disassembly of section .init:

0000000000400560 <_init>:
  400560:	48 83 ec 08          	sub    $0x8,%rsp
  400564:	48 8b 05 8d 1a 20 00 	mov    0x201a8d(%rip),%rax        # 601ff8 <__gmon_start__>
  40056b:	48 85 c0             	test   %rax,%rax
  40056e:	74 05                	je     400575 <_init+0x15>
  400570:	e8 6b 00 00 00       	callq  4005e0 <__gmon_start__@plt>
  400575:	48 83 c4 08          	add    $0x8,%rsp
  400579:	c3                   	retq   

Disassembly of section .plt:

0000000000400580 <.plt>:
  400580:	ff 35 82 1a 20 00    	pushq  0x201a82(%rip)        # 602008 <_GLOBAL_OFFSET_TABLE_+0x8>
  400586:	ff 25 84 1a 20 00    	jmpq   *0x201a84(%rip)        # 602010 <_GLOBAL_OFFSET_TABLE_+0x10>
  40058c:	0f 1f 40 00          	nopl   0x0(%rax)

0000000000400590 <free@plt>:
  400590:	ff 25 82 1a 20 00    	jmpq   *0x201a82(%rip)        # 602018 <free@GLIBC_2.2.5>
  400596:	68 00 00 00 00       	pushq  $0x0
  40059b:	e9 e0 ff ff ff       	jmpq   400580 <.plt>

00000000004005a0 <putchar@plt>:
  4005a0:	ff 25 7a 1a 20 00    	jmpq   *0x201a7a(%rip)        # 602020 <putchar@GLIBC_2.2.5>
  4005a6:	68 01 00 00 00       	pushq  $0x1
  4005ab:	e9 d0 ff ff ff       	jmpq   400580 <.plt>

00000000004005b0 <puts@plt>:
  4005b0:	ff 25 72 1a 20 00    	jmpq   *0x201a72(%rip)        # 602028 <puts@GLIBC_2.2.5>
  4005b6:	68 02 00 00 00       	pushq  $0x2
  4005bb:	e9 c0 ff ff ff       	jmpq   400580 <.plt>

00000000004005c0 <printf@plt>:
  4005c0:	ff 25 6a 1a 20 00    	jmpq   *0x201a6a(%rip)        # 602030 <printf@GLIBC_2.2.5>
  4005c6:	68 03 00 00 00       	pushq  $0x3
  4005cb:	e9 b0 ff ff ff       	jmpq   400580 <.plt>

00000000004005d0 <__libc_start_main@plt>:
  4005d0:	ff 25 62 1a 20 00    	jmpq   *0x201a62(%rip)        # 602038 <__libc_start_main@GLIBC_2.2.5>
  4005d6:	68 04 00 00 00       	pushq  $0x4
  4005db:	e9 a0 ff ff ff       	jmpq   400580 <.plt>

00000000004005e0 <__gmon_start__@plt>:
  4005e0:	ff 25 5a 1a 20 00    	jmpq   *0x201a5a(%rip)        # 602040 <__gmon_start__>
  4005e6:	68 05 00 00 00       	pushq  $0x5
  4005eb:	e9 90 ff ff ff       	jmpq   400580 <.plt>

00000000004005f0 <malloc@plt>:
  4005f0:	ff 25 52 1a 20 00    	jmpq   *0x201a52(%rip)        # 602048 <malloc@GLIBC_2.2.5>
  4005f6:	68 06 00 00 00       	pushq  $0x6
  4005fb:	e9 80 ff ff ff       	jmpq   400580 <.plt>

0000000000400600 <bzero@plt>:
  400600:	ff 25 4a 1a 20 00    	jmpq   *0x201a4a(%rip)        # 602050 <bzero@GLIBC_2.2.5>
  400606:	68 07 00 00 00       	pushq  $0x7
  40060b:	e9 70 ff ff ff       	jmpq   400580 <.plt>

0000000000400610 <sqrt@plt>:
  400610:	ff 25 42 1a 20 00    	jmpq   *0x201a42(%rip)        # 602058 <sqrt@GLIBC_2.2.5>
  400616:	68 08 00 00 00       	pushq  $0x8
  40061b:	e9 60 ff ff ff       	jmpq   400580 <.plt>

Disassembly of section .text:

0000000000400620 <main>:
   return cluster;
}


int main( void )
{
  400620:	41 55                	push   %r13
  400622:	41 54                	push   %r12
   unsigned long long cycles = 0;
  400624:	45 31 e4             	xor    %r12d,%r12d
{
  400627:	55                   	push   %rbp

   int clusters;

   // For N runs
   unsigned long long runs = 100;
   for(unsigned long long i = 0; i < runs; i++){
  400628:	31 ed                	xor    %ebp,%ebp
{
  40062a:	53                   	push   %rbx
  40062b:	48 83 ec 18          	sub    $0x18,%rsp
  40062f:	90                   	nop
  __asm__ __volatile__ ("rdtsc" : "=a"(lo), "=d"(hi));
  400630:	0f 31                	rdtsc  
  return ( (unsigned long long)lo)|( ((unsigned long long)hi)<<32 );
  400632:	48 89 d3             	mov    %rdx,%rbx
  400635:	89 c0                	mov    %eax,%eax
  400637:	48 c1 e3 20          	shl    $0x20,%rbx
  40063b:	48 09 c3             	or     %rax,%rbx

      st = rdtsc();
      clusters = dbscan( );
  40063e:	e8 1d 0c 00 00       	callq  401260 <dbscan>
  400643:	41 89 c5             	mov    %eax,%r13d
  __asm__ __volatile__ ("rdtsc" : "=a"(lo), "=d"(hi));
  400646:	0f 31                	rdtsc  
  return ( (unsigned long long)lo)|( ((unsigned long long)hi)<<32 );
  400648:	48 c1 e2 20          	shl    $0x20,%rdx
  40064c:	89 c0                	mov    %eax,%eax
  40064e:	48 09 c2             	or     %rax,%rdx
      et = rdtsc();
      cycles += (et-st);
  400651:	48 29 da             	sub    %rbx,%rdx
  400654:	49 01 d4             	add    %rdx,%r12
      // Reset labels for all runs and skip for the last 
      for( int j = 0; j < OBSERVATIONS; j++){
         if(i == (runs-1)){
  400657:	48 83 fd 63          	cmp    $0x63,%rbp
  40065b:	74 2b                	je     400688 <main+0x68>
            break;
         }
         dataset[j].label = UNDEFINED;
  40065d:	c7 05 65 1a 20 00 00 	movl   $0x0,0x201a65(%rip)        # 6020cc <dataset+0x4c>
  400664:	00 00 00 
  400667:	b8 1c 21 60 00       	mov    $0x60211c,%eax
  40066c:	0f 1f 40 00          	nopl   0x0(%rax)
  400670:	c7 00 00 00 00 00    	movl   $0x0,(%rax)
  400676:	48 83 c0 50          	add    $0x50,%rax
      for( int j = 0; j < OBSERVATIONS; j++){
  40067a:	48 3d fc 40 60 00    	cmp    $0x6040fc,%rax
  400680:	75 ee                	jne    400670 <main+0x50>
   for(unsigned long long i = 0; i < runs; i++){
  400682:	48 83 c5 01          	add    $0x1,%rbp
  400686:	eb a8                	jmp    400630 <main+0x10>
      }
   }
   dst_percentage = ( (double)dst_cycles / (double)cycles ) * 100;
  400688:	4d 85 e4             	test   %r12,%r12
  40068b:	0f 88 ee 03 00 00    	js     400a7f <main+0x45f>
  400691:	f2 49 0f 2a d4       	cvtsi2sd %r12,%xmm2
  400696:	48 8b 05 23 3a 20 00 	mov    0x203a23(%rip),%rax        # 6040c0 <dst_cycles>
  40069d:	48 85 c0             	test   %rax,%rax
  4006a0:	f2 0f 11 14 24       	movsd  %xmm2,(%rsp)
  4006a5:	0f 88 05 04 00 00    	js     400ab0 <main+0x490>
  4006ab:	f2 48 0f 2a c0       	cvtsi2sd %rax,%xmm0
  4006b0:	f2 0f 5e 04 24       	divsd  (%rsp),%xmm0

   // emit classes
   for ( int class = 1 ; class <= clusters ; class++ )
  4006b5:	45 85 ed             	test   %r13d,%r13d
  4006b8:	bd 01 00 00 00       	mov    $0x1,%ebp
   dst_percentage = ( (double)dst_cycles / (double)cycles ) * 100;
  4006bd:	f2 0f 59 05 8b 13 00 	mulsd  0x138b(%rip),%xmm0        # 401a50 <__dso_handle+0x638>
  4006c4:	00 
  4006c5:	f2 0f 11 44 24 08    	movsd  %xmm0,0x8(%rsp)
   for ( int class = 1 ; class <= clusters ; class++ )
  4006cb:	7e 5e                	jle    40072b <main+0x10b>
   {
      printf( "Class %d:\n", class );
  4006cd:	89 ee                	mov    %ebp,%esi
  4006cf:	bf 26 14 40 00       	mov    $0x401426,%edi
  4006d4:	31 c0                	xor    %eax,%eax
  4006d6:	e8 e5 fe ff ff       	callq  4005c0 <printf@plt>
  4006db:	bb cc 20 60 00       	mov    $0x6020cc,%ebx
  4006e0:	eb 13                	jmp    4006f5 <main+0xd5>
  4006e2:	66 0f 1f 44 00 00    	nopw   0x0(%rax,%rax,1)
  4006e8:	48 83 c3 50          	add    $0x50,%rbx
      for ( int obs = 0 ; obs < OBSERVATIONS ; obs++ )
  4006ec:	48 81 fb fc 40 60 00 	cmp    $0x6040fc,%rbx
  4006f3:	74 24                	je     400719 <main+0xf9>
      {
         if ( dataset[ obs ].label == class )
  4006f5:	39 2b                	cmp    %ebp,(%rbx)
  4006f7:	75 ef                	jne    4006e8 <main+0xc8>
         {
            printf("  %s (%d)\n", dataset[ obs ].name, dataset[ obs ].class );
  4006f9:	8b 53 fc             	mov    -0x4(%rbx),%edx
  4006fc:	48 8b 73 b4          	mov    -0x4c(%rbx),%rsi
  400700:	31 c0                	xor    %eax,%eax
  400702:	bf 31 14 40 00       	mov    $0x401431,%edi
  400707:	48 83 c3 50          	add    $0x50,%rbx
  40070b:	e8 b0 fe ff ff       	callq  4005c0 <printf@plt>
      for ( int obs = 0 ; obs < OBSERVATIONS ; obs++ )
  400710:	48 81 fb fc 40 60 00 	cmp    $0x6040fc,%rbx
  400717:	75 dc                	jne    4006f5 <main+0xd5>
         }
      }
      printf("\n");
  400719:	bf 0a 00 00 00       	mov    $0xa,%edi
   for ( int class = 1 ; class <= clusters ; class++ )
  40071e:	83 c5 01             	add    $0x1,%ebp
      printf("\n");
  400721:	e8 7a fe ff ff       	callq  4005a0 <putchar@plt>
   for ( int class = 1 ; class <= clusters ; class++ )
  400726:	41 39 ed             	cmp    %ebp,%r13d
  400729:	7d a2                	jge    4006cd <main+0xad>
   }

   // Emit outliers (NOISE)
   printf( "NOISE\n" );
  40072b:	bf 20 14 40 00       	mov    $0x401420,%edi
  400730:	bb cc 20 60 00       	mov    $0x6020cc,%ebx
  400735:	e8 76 fe ff ff       	callq  4005b0 <puts@plt>
  40073a:	eb 11                	jmp    40074d <main+0x12d>
  40073c:	0f 1f 40 00          	nopl   0x0(%rax)
  400740:	48 83 c3 50          	add    $0x50,%rbx
   for ( int obs = 0 ; obs < OBSERVATIONS ; obs++ )
  400744:	48 81 fb fc 40 60 00 	cmp    $0x6040fc,%rbx
  40074b:	74 25                	je     400772 <main+0x152>
   {
      if ( dataset[ obs ].label == NOISE )
  40074d:	83 3b 08             	cmpl   $0x8,(%rbx)
  400750:	75 ee                	jne    400740 <main+0x120>
      {
         printf("  %s (%d)\n", dataset[ obs ].name, dataset[ obs ].class );
  400752:	8b 53 fc             	mov    -0x4(%rbx),%edx
  400755:	48 8b 73 b4          	mov    -0x4c(%rbx),%rsi
  400759:	31 c0                	xor    %eax,%eax
  40075b:	bf 31 14 40 00       	mov    $0x401431,%edi
  400760:	48 83 c3 50          	add    $0x50,%rbx
  400764:	e8 57 fe ff ff       	callq  4005c0 <printf@plt>
   for ( int obs = 0 ; obs < OBSERVATIONS ; obs++ )
  400769:	48 81 fb fc 40 60 00 	cmp    $0x6040fc,%rbx
  400770:	75 db                	jne    40074d <main+0x12d>
      }
   }
   printf("\n");
  400772:	bf 0a 00 00 00       	mov    $0xa,%edi
  400777:	e8 24 fe ff ff       	callq  4005a0 <putchar@plt>

   // Dataset
   printf("Dataset Metrics:\n");
  40077c:	bf 3c 14 40 00       	mov    $0x40143c,%edi
  400781:	e8 2a fe ff ff       	callq  4005b0 <puts@plt>
   printf("Number of datapoints: %d, Number of features: %d\n\n", OBSERVATIONS, FEATURES);
  400786:	ba 10 00 00 00       	mov    $0x10,%edx
  40078b:	be 67 00 00 00       	mov    $0x67,%esi
  400790:	bf d8 17 40 00       	mov    $0x4017d8,%edi
  400795:	31 c0                	xor    %eax,%eax
  400797:	e8 24 fe ff ff       	callq  4005c0 <printf@plt>

   // For N runs
   printf("Performance Metrics Over N = %llu Runs:\n",runs);
  40079c:	be 64 00 00 00       	mov    $0x64,%esi
  4007a1:	bf 10 18 40 00       	mov    $0x401810,%edi
  4007a6:	31 c0                	xor    %eax,%eax
  4007a8:	e8 13 fe ff ff       	callq  4005c0 <printf@plt>
   printf("RDTSC Base Cycles Taken for dbscan: %llu\n", cycles);
  4007ad:	4c 89 e6             	mov    %r12,%rsi
  4007b0:	bf 10 19 40 00       	mov    $0x401910,%edi
  4007b5:	31 c0                	xor    %eax,%eax
  4007b7:	e8 04 fe ff ff       	callq  4005c0 <printf@plt>
   printf("RDTSC Base Cycles Taken for distance: %llu\n", dst_cycles);
  4007bc:	48 8b 35 fd 38 20 00 	mov    0x2038fd(%rip),%rsi        # 6040c0 <dst_cycles>
  4007c3:	bf 48 19 40 00       	mov    $0x401948,%edi
  4007c8:	31 c0                	xor    %eax,%eax
  4007ca:	e8 f1 fd ff ff       	callq  4005c0 <printf@plt>

   printf("TURBO Cycles Taken for dbscan: %f\n", cycles * ((double)MAX_FREQ)/BASE_FREQ);
  4007cf:	f2 0f 10 05 81 12 00 	movsd  0x1281(%rip),%xmm0        # 401a58 <__dso_handle+0x640>
  4007d6:	00 
  4007d7:	bf 40 18 40 00       	mov    $0x401840,%edi
  4007dc:	b8 01 00 00 00       	mov    $0x1,%eax
  4007e1:	f2 0f 59 04 24       	mulsd  (%rsp),%xmm0
  4007e6:	f2 0f 5e 05 72 12 00 	divsd  0x1272(%rip),%xmm0        # 401a60 <__dso_handle+0x648>
  4007ed:	00 
  4007ee:	e8 cd fd ff ff       	callq  4005c0 <printf@plt>
   printf("TURBO Cycles Taken for distance: %f\n", dst_cycles * ((double)MAX_FREQ)/BASE_FREQ);
  4007f3:	48 8b 05 c6 38 20 00 	mov    0x2038c6(%rip),%rax        # 6040c0 <dst_cycles>
  4007fa:	48 85 c0             	test   %rax,%rax
  4007fd:	0f 88 c7 02 00 00    	js     400aca <main+0x4aa>
  400803:	f2 48 0f 2a c0       	cvtsi2sd %rax,%xmm0
  400808:	f2 0f 59 05 48 12 00 	mulsd  0x1248(%rip),%xmm0        # 401a58 <__dso_handle+0x640>
  40080f:	00 
  400810:	bf 68 18 40 00       	mov    $0x401868,%edi
  400815:	b8 01 00 00 00       	mov    $0x1,%eax
  40081a:	f2 0f 5e 05 3e 12 00 	divsd  0x123e(%rip),%xmm0        # 401a60 <__dso_handle+0x648>
  400821:	00 
  400822:	e8 99 fd ff ff       	callq  4005c0 <printf@plt>

   printf("Percentage of Cycles Spent Calculating distance: %% %f\n", dst_percentage);
  400827:	f2 0f 10 44 24 08    	movsd  0x8(%rsp),%xmm0
  40082d:	bf 90 18 40 00       	mov    $0x401890,%edi
  400832:	b8 01 00 00 00       	mov    $0x1,%eax
  400837:	e8 84 fd ff ff       	callq  4005c0 <printf@plt>
   printf("Distance is called %d times, each of which takes ~%f cycles\n", dst_call_count, ((double) dst_cycles / (double)dst_call_count));
  40083c:	48 8b 05 7d 38 20 00 	mov    0x20387d(%rip),%rax        # 6040c0 <dst_cycles>
  400843:	8b 35 97 38 20 00    	mov    0x203897(%rip),%esi        # 6040e0 <dst_call_count>
  400849:	48 85 c0             	test   %rax,%rax
  40084c:	0f 88 e0 02 00 00    	js     400b32 <main+0x512>
  400852:	f2 48 0f 2a c0       	cvtsi2sd %rax,%xmm0
  400857:	f2 0f 2a ce          	cvtsi2sd %esi,%xmm1
  40085b:	bf c8 18 40 00       	mov    $0x4018c8,%edi
  400860:	b8 01 00 00 00       	mov    $0x1,%eax

   // Average Performance
   printf("\nAverage Performance Metrics:\n");

   printf("Average RDTSC Base Cycles Taken for dbscan: %llu\n", (cycles/runs));
  400865:	4c 89 e3             	mov    %r12,%rbx
  400868:	48 bd c3 f5 28 5c 8f 	movabs $0x28f5c28f5c28f5c3,%rbp
  40086f:	c2 f5 28 
  400872:	48 c1 eb 02          	shr    $0x2,%rbx
   printf("Distance is called %d times, each of which takes ~%f cycles\n", dst_call_count, ((double) dst_cycles / (double)dst_call_count));
  400876:	f2 0f 5e c1          	divsd  %xmm1,%xmm0
  40087a:	e8 41 fd ff ff       	callq  4005c0 <printf@plt>
   printf("\nAverage Performance Metrics:\n");
  40087f:	bf 4d 14 40 00       	mov    $0x40144d,%edi
  400884:	e8 27 fd ff ff       	callq  4005b0 <puts@plt>
   printf("Average RDTSC Base Cycles Taken for dbscan: %llu\n", (cycles/runs));
  400889:	48 89 d8             	mov    %rbx,%rax
  40088c:	bf 08 19 40 00       	mov    $0x401908,%edi
  400891:	48 f7 e5             	mul    %rbp
  400894:	31 c0                	xor    %eax,%eax
  400896:	48 89 d3             	mov    %rdx,%rbx
  400899:	48 c1 eb 02          	shr    $0x2,%rbx
  40089d:	48 89 de             	mov    %rbx,%rsi
  4008a0:	e8 1b fd ff ff       	callq  4005c0 <printf@plt>
   printf("Average RDTSC Base Cycles Taken for distance: %llu\n", (dst_cycles/runs));
  4008a5:	48 8b 35 14 38 20 00 	mov    0x203814(%rip),%rsi        # 6040c0 <dst_cycles>
  4008ac:	bf 40 19 40 00       	mov    $0x401940,%edi
  4008b1:	48 c1 ee 02          	shr    $0x2,%rsi
  4008b5:	48 89 f0             	mov    %rsi,%rax
  4008b8:	48 f7 e5             	mul    %rbp
  4008bb:	31 c0                	xor    %eax,%eax
  4008bd:	48 89 d6             	mov    %rdx,%rsi
  4008c0:	48 c1 ee 02          	shr    $0x2,%rsi
  4008c4:	e8 f7 fc ff ff       	callq  4005c0 <printf@plt>

   printf("TURBO Cycles Taken for dbscan: %f\n", (cycles/runs) * ((double)MAX_FREQ)/BASE_FREQ);
  4008c9:	f2 48 0f 2a c3       	cvtsi2sd %rbx,%xmm0
  4008ce:	bf 40 18 40 00       	mov    $0x401840,%edi
  4008d3:	b8 01 00 00 00       	mov    $0x1,%eax
  4008d8:	f2 0f 59 05 78 11 00 	mulsd  0x1178(%rip),%xmm0        # 401a58 <__dso_handle+0x640>
  4008df:	00 
  4008e0:	f2 0f 5e 05 78 11 00 	divsd  0x1178(%rip),%xmm0        # 401a60 <__dso_handle+0x648>
  4008e7:	00 
  4008e8:	e8 d3 fc ff ff       	callq  4005c0 <printf@plt>
   printf("TURBO Cycles Taken for distance: %f\n", (dst_cycles/runs) * ((double)MAX_FREQ)/BASE_FREQ);
  4008ed:	48 8b 15 cc 37 20 00 	mov    0x2037cc(%rip),%rdx        # 6040c0 <dst_cycles>
  4008f4:	bf 68 18 40 00       	mov    $0x401868,%edi
  4008f9:	48 c1 ea 02          	shr    $0x2,%rdx
  4008fd:	48 89 d0             	mov    %rdx,%rax
  400900:	48 f7 e5             	mul    %rbp
  400903:	b8 01 00 00 00       	mov    $0x1,%eax
  400908:	48 c1 ea 02          	shr    $0x2,%rdx
  40090c:	f2 48 0f 2a c2       	cvtsi2sd %rdx,%xmm0
  400911:	f2 0f 59 05 3f 11 00 	mulsd  0x113f(%rip),%xmm0        # 401a58 <__dso_handle+0x640>
  400918:	00 
  400919:	f2 0f 5e 05 3f 11 00 	divsd  0x113f(%rip),%xmm0        # 401a60 <__dso_handle+0x648>
  400920:	00 
  400921:	e8 9a fc ff ff       	callq  4005c0 <printf@plt>

   printf("Percentage of Cycles Spent Calculating distance: %% %f\n", dst_percentage);
  400926:	f2 0f 10 44 24 08    	movsd  0x8(%rsp),%xmm0
  40092c:	bf 90 18 40 00       	mov    $0x401890,%edi
  400931:	b8 01 00 00 00       	mov    $0x1,%eax
  400936:	e8 85 fc ff ff       	callq  4005c0 <printf@plt>
   printf("Distance is called %llu times, each of which takes ~%f cycles\n", (dst_call_count / runs), ((double) dst_cycles / (double)dst_call_count));
  40093b:	48 8b 05 7e 37 20 00 	mov    0x20377e(%rip),%rax        # 6040c0 <dst_cycles>
  400942:	48 63 35 97 37 20 00 	movslq 0x203797(%rip),%rsi        # 6040e0 <dst_call_count>
  400949:	48 85 c0             	test   %rax,%rax
  40094c:	0f 88 c6 01 00 00    	js     400b18 <main+0x4f8>
  400952:	f2 48 0f 2a c0       	cvtsi2sd %rax,%xmm0
  400957:	f2 0f 2a ce          	cvtsi2sd %esi,%xmm1
  40095b:	48 c1 ee 02          	shr    $0x2,%rsi
  40095f:	48 bb c3 f5 28 5c 8f 	movabs $0x28f5c28f5c28f5c3,%rbx
  400966:	c2 f5 28 
  400969:	48 89 f0             	mov    %rsi,%rax
  40096c:	bf 78 19 40 00       	mov    $0x401978,%edi
  400971:	48 f7 e3             	mul    %rbx
  400974:	b8 01 00 00 00       	mov    $0x1,%eax
  400979:	48 89 d6             	mov    %rdx,%rsi
  40097c:	48 c1 ee 02          	shr    $0x2,%rsi
  400980:	f2 0f 5e c1          	divsd  %xmm1,%xmm0
  400984:	e8 37 fc ff ff       	callq  4005c0 <printf@plt>

   // Peak Performance
   printf("\nPeak Performance:\n");
  400989:	bf 6b 14 40 00       	mov    $0x40146b,%edi
  40098e:	e8 1d fc ff ff       	callq  4005b0 <puts@plt>
   printf("Peak FLOPS/Cycle = 24.00\n");
  400993:	bf 7e 14 40 00       	mov    $0x40147e,%edi
  400998:	e8 13 fc ff ff       	callq  4005b0 <puts@plt>
   printf("Peak GFLOPS/Second = 76.80\n");
  40099d:	bf 97 14 40 00       	mov    $0x401497,%edi
  4009a2:	e8 09 fc ff ff       	callq  4005b0 <puts@plt>

   // Baseline Performance 
   printf("\nBaseline Performance:\n");
  4009a7:	bf b2 14 40 00       	mov    $0x4014b2,%edi
  4009ac:	e8 ff fb ff ff       	callq  4005b0 <puts@plt>
   printf("Number of operations peformed in each run of DBSCAN is %llu\n", (dst_call_count/runs)*3);
  4009b1:	48 63 15 28 37 20 00 	movslq 0x203728(%rip),%rdx        # 6040e0 <dst_call_count>
  4009b8:	bf b8 19 40 00       	mov    $0x4019b8,%edi
  4009bd:	48 c1 ea 02          	shr    $0x2,%rdx
  4009c1:	48 89 d0             	mov    %rdx,%rax
  4009c4:	48 f7 e3             	mul    %rbx
  4009c7:	31 c0                	xor    %eax,%eax
  4009c9:	48 c1 ea 02          	shr    $0x2,%rdx
  4009cd:	48 8d 34 52          	lea    (%rdx,%rdx,2),%rsi
  4009d1:	e8 ea fb ff ff       	callq  4005c0 <printf@plt>
   printf("Total number of cycles spent in the core distance function is %llu\n", (dst_cycles/runs));
  4009d6:	48 8b 35 e3 36 20 00 	mov    0x2036e3(%rip),%rsi        # 6040c0 <dst_cycles>
  4009dd:	bf f8 19 40 00       	mov    $0x4019f8,%edi
  4009e2:	48 c1 ee 02          	shr    $0x2,%rsi
  4009e6:	48 89 f0             	mov    %rsi,%rax
  4009e9:	48 f7 e3             	mul    %rbx
  4009ec:	31 c0                	xor    %eax,%eax
  4009ee:	48 89 d6             	mov    %rdx,%rsi
  4009f1:	48 c1 ee 02          	shr    $0x2,%rsi
  4009f5:	e8 c6 fb ff ff       	callq  4005c0 <printf@plt>
   printf("Baseline FLOPS/Cycle = %f\n", (dst_call_count*3.0) / (dst_cycles));
  4009fa:	f2 0f 2a 05 de 36 20 	cvtsi2sdl 0x2036de(%rip),%xmm0        # 6040e0 <dst_call_count>
  400a01:	00 
  400a02:	48 8b 05 b7 36 20 00 	mov    0x2036b7(%rip),%rax        # 6040c0 <dst_cycles>
  400a09:	f2 0f 59 05 57 10 00 	mulsd  0x1057(%rip),%xmm0        # 401a68 <__dso_handle+0x650>
  400a10:	00 
  400a11:	48 85 c0             	test   %rax,%rax
  400a14:	0f 88 e4 00 00 00    	js     400afe <main+0x4de>
  400a1a:	f2 48 0f 2a c8       	cvtsi2sd %rax,%xmm1
  400a1f:	f2 0f 5e c1          	divsd  %xmm1,%xmm0
  400a23:	bf c9 14 40 00       	mov    $0x4014c9,%edi
  400a28:	b8 01 00 00 00       	mov    $0x1,%eax
  400a2d:	e8 8e fb ff ff       	callq  4005c0 <printf@plt>
   printf("Baseline GFLOPS/Second = %f", ((dst_call_count*3.0) / (dst_cycles)) * MAX_FREQ );
  400a32:	f2 0f 2a 05 a6 36 20 	cvtsi2sdl 0x2036a6(%rip),%xmm0        # 6040e0 <dst_call_count>
  400a39:	00 
  400a3a:	48 8b 05 7f 36 20 00 	mov    0x20367f(%rip),%rax        # 6040c0 <dst_cycles>
  400a41:	f2 0f 59 05 1f 10 00 	mulsd  0x101f(%rip),%xmm0        # 401a68 <__dso_handle+0x650>
  400a48:	00 
  400a49:	48 85 c0             	test   %rax,%rax
  400a4c:	0f 88 92 00 00 00    	js     400ae4 <main+0x4c4>
  400a52:	f2 48 0f 2a c8       	cvtsi2sd %rax,%xmm1
  400a57:	f2 0f 5e c1          	divsd  %xmm1,%xmm0
  400a5b:	bf e4 14 40 00       	mov    $0x4014e4,%edi
  400a60:	b8 01 00 00 00       	mov    $0x1,%eax
  400a65:	f2 0f 59 05 eb 0f 00 	mulsd  0xfeb(%rip),%xmm0        # 401a58 <__dso_handle+0x640>
  400a6c:	00 
  400a6d:	e8 4e fb ff ff       	callq  4005c0 <printf@plt>
 
   return 0;
}
  400a72:	48 83 c4 18          	add    $0x18,%rsp
  400a76:	31 c0                	xor    %eax,%eax
  400a78:	5b                   	pop    %rbx
  400a79:	5d                   	pop    %rbp
  400a7a:	41 5c                	pop    %r12
  400a7c:	41 5d                	pop    %r13
  400a7e:	c3                   	retq   
   dst_percentage = ( (double)dst_cycles / (double)cycles ) * 100;
  400a7f:	4c 89 e0             	mov    %r12,%rax
  400a82:	4c 89 e2             	mov    %r12,%rdx
  400a85:	48 d1 e8             	shr    %rax
  400a88:	83 e2 01             	and    $0x1,%edx
  400a8b:	48 09 d0             	or     %rdx,%rax
  400a8e:	f2 48 0f 2a d8       	cvtsi2sd %rax,%xmm3
  400a93:	48 8b 05 26 36 20 00 	mov    0x203626(%rip),%rax        # 6040c0 <dst_cycles>
  400a9a:	48 85 c0             	test   %rax,%rax
  400a9d:	66 0f 28 e3          	movapd %xmm3,%xmm4
  400aa1:	f2 0f 58 e3          	addsd  %xmm3,%xmm4
  400aa5:	f2 0f 11 24 24       	movsd  %xmm4,(%rsp)
  400aaa:	0f 89 fb fb ff ff    	jns    4006ab <main+0x8b>
  400ab0:	48 89 c2             	mov    %rax,%rdx
  400ab3:	83 e0 01             	and    $0x1,%eax
  400ab6:	48 d1 ea             	shr    %rdx
  400ab9:	48 09 c2             	or     %rax,%rdx
  400abc:	f2 48 0f 2a c2       	cvtsi2sd %rdx,%xmm0
  400ac1:	f2 0f 58 c0          	addsd  %xmm0,%xmm0
  400ac5:	e9 e6 fb ff ff       	jmpq   4006b0 <main+0x90>
   printf("TURBO Cycles Taken for distance: %f\n", dst_cycles * ((double)MAX_FREQ)/BASE_FREQ);
  400aca:	48 89 c2             	mov    %rax,%rdx
  400acd:	83 e0 01             	and    $0x1,%eax
  400ad0:	48 d1 ea             	shr    %rdx
  400ad3:	48 09 c2             	or     %rax,%rdx
  400ad6:	f2 48 0f 2a c2       	cvtsi2sd %rdx,%xmm0
  400adb:	f2 0f 58 c0          	addsd  %xmm0,%xmm0
  400adf:	e9 24 fd ff ff       	jmpq   400808 <main+0x1e8>
   printf("Baseline GFLOPS/Second = %f", ((dst_call_count*3.0) / (dst_cycles)) * MAX_FREQ );
  400ae4:	48 89 c2             	mov    %rax,%rdx
  400ae7:	83 e0 01             	and    $0x1,%eax
  400aea:	48 d1 ea             	shr    %rdx
  400aed:	48 09 c2             	or     %rax,%rdx
  400af0:	f2 48 0f 2a ca       	cvtsi2sd %rdx,%xmm1
  400af5:	f2 0f 58 c9          	addsd  %xmm1,%xmm1
  400af9:	e9 59 ff ff ff       	jmpq   400a57 <main+0x437>
   printf("Baseline FLOPS/Cycle = %f\n", (dst_call_count*3.0) / (dst_cycles));
  400afe:	48 89 c2             	mov    %rax,%rdx
  400b01:	83 e0 01             	and    $0x1,%eax
  400b04:	48 d1 ea             	shr    %rdx
  400b07:	48 09 c2             	or     %rax,%rdx
  400b0a:	f2 48 0f 2a ca       	cvtsi2sd %rdx,%xmm1
  400b0f:	f2 0f 58 c9          	addsd  %xmm1,%xmm1
  400b13:	e9 07 ff ff ff       	jmpq   400a1f <main+0x3ff>
   printf("Distance is called %llu times, each of which takes ~%f cycles\n", (dst_call_count / runs), ((double) dst_cycles / (double)dst_call_count));
  400b18:	48 89 c2             	mov    %rax,%rdx
  400b1b:	83 e0 01             	and    $0x1,%eax
  400b1e:	48 d1 ea             	shr    %rdx
  400b21:	48 09 c2             	or     %rax,%rdx
  400b24:	f2 48 0f 2a c2       	cvtsi2sd %rdx,%xmm0
  400b29:	f2 0f 58 c0          	addsd  %xmm0,%xmm0
  400b2d:	e9 25 fe ff ff       	jmpq   400957 <main+0x337>
   printf("Distance is called %d times, each of which takes ~%f cycles\n", dst_call_count, ((double) dst_cycles / (double)dst_call_count));
  400b32:	48 89 c2             	mov    %rax,%rdx
  400b35:	83 e0 01             	and    $0x1,%eax
  400b38:	48 d1 ea             	shr    %rdx
  400b3b:	48 09 c2             	or     %rax,%rdx
  400b3e:	f2 48 0f 2a c2       	cvtsi2sd %rdx,%xmm0
  400b43:	f2 0f 58 c0          	addsd  %xmm0,%xmm0
  400b47:	e9 0b fd ff ff       	jmpq   400857 <main+0x237>

0000000000400b4c <_start>:
  400b4c:	31 ed                	xor    %ebp,%ebp
  400b4e:	49 89 d1             	mov    %rdx,%r9
  400b51:	5e                   	pop    %rsi
  400b52:	48 89 e2             	mov    %rsp,%rdx
  400b55:	48 83 e4 f0          	and    $0xfffffffffffffff0,%rsp
  400b59:	50                   	push   %rax
  400b5a:	54                   	push   %rsp
  400b5b:	49 c7 c0 00 14 40 00 	mov    $0x401400,%r8
  400b62:	48 c7 c1 90 13 40 00 	mov    $0x401390,%rcx
  400b69:	48 c7 c7 20 06 40 00 	mov    $0x400620,%rdi
  400b70:	e8 5b fa ff ff       	callq  4005d0 <__libc_start_main@plt>
  400b75:	f4                   	hlt    
  400b76:	66 2e 0f 1f 84 00 00 	nopw   %cs:0x0(%rax,%rax,1)
  400b7d:	00 00 00 

0000000000400b80 <deregister_tm_clones>:
  400b80:	b8 b7 40 60 00       	mov    $0x6040b7,%eax
  400b85:	55                   	push   %rbp
  400b86:	48 2d b0 40 60 00    	sub    $0x6040b0,%rax
  400b8c:	48 83 f8 0e          	cmp    $0xe,%rax
  400b90:	48 89 e5             	mov    %rsp,%rbp
  400b93:	77 02                	ja     400b97 <deregister_tm_clones+0x17>
  400b95:	5d                   	pop    %rbp
  400b96:	c3                   	retq   
  400b97:	b8 00 00 00 00       	mov    $0x0,%eax
  400b9c:	48 85 c0             	test   %rax,%rax
  400b9f:	74 f4                	je     400b95 <deregister_tm_clones+0x15>
  400ba1:	5d                   	pop    %rbp
  400ba2:	bf b0 40 60 00       	mov    $0x6040b0,%edi
  400ba7:	ff e0                	jmpq   *%rax
  400ba9:	0f 1f 80 00 00 00 00 	nopl   0x0(%rax)

0000000000400bb0 <register_tm_clones>:
  400bb0:	b8 b0 40 60 00       	mov    $0x6040b0,%eax
  400bb5:	55                   	push   %rbp
  400bb6:	48 2d b0 40 60 00    	sub    $0x6040b0,%rax
  400bbc:	48 c1 f8 03          	sar    $0x3,%rax
  400bc0:	48 89 e5             	mov    %rsp,%rbp
  400bc3:	48 89 c2             	mov    %rax,%rdx
  400bc6:	48 c1 ea 3f          	shr    $0x3f,%rdx
  400bca:	48 01 d0             	add    %rdx,%rax
  400bcd:	48 d1 f8             	sar    %rax
  400bd0:	75 02                	jne    400bd4 <register_tm_clones+0x24>
  400bd2:	5d                   	pop    %rbp
  400bd3:	c3                   	retq   
  400bd4:	ba 00 00 00 00       	mov    $0x0,%edx
  400bd9:	48 85 d2             	test   %rdx,%rdx
  400bdc:	74 f4                	je     400bd2 <register_tm_clones+0x22>
  400bde:	5d                   	pop    %rbp
  400bdf:	48 89 c6             	mov    %rax,%rsi
  400be2:	bf b0 40 60 00       	mov    $0x6040b0,%edi
  400be7:	ff e2                	jmpq   *%rdx
  400be9:	0f 1f 80 00 00 00 00 	nopl   0x0(%rax)

0000000000400bf0 <__do_global_dtors_aux>:
  400bf0:	80 3d b9 34 20 00 00 	cmpb   $0x0,0x2034b9(%rip)        # 6040b0 <__TMC_END__>
  400bf7:	75 11                	jne    400c0a <__do_global_dtors_aux+0x1a>
  400bf9:	55                   	push   %rbp
  400bfa:	48 89 e5             	mov    %rsp,%rbp
  400bfd:	e8 7e ff ff ff       	callq  400b80 <deregister_tm_clones>
  400c02:	5d                   	pop    %rbp
  400c03:	c6 05 a6 34 20 00 01 	movb   $0x1,0x2034a6(%rip)        # 6040b0 <__TMC_END__>
  400c0a:	f3 c3                	repz retq 
  400c0c:	0f 1f 40 00          	nopl   0x0(%rax)

0000000000400c10 <frame_dummy>:
  400c10:	48 83 3d f8 11 20 00 	cmpq   $0x0,0x2011f8(%rip)        # 601e10 <__JCR_END__>
  400c17:	00 
  400c18:	74 1e                	je     400c38 <frame_dummy+0x28>
  400c1a:	b8 00 00 00 00       	mov    $0x0,%eax
  400c1f:	48 85 c0             	test   %rax,%rax
  400c22:	74 14                	je     400c38 <frame_dummy+0x28>
  400c24:	55                   	push   %rbp
  400c25:	bf 10 1e 60 00       	mov    $0x601e10,%edi
  400c2a:	48 89 e5             	mov    %rsp,%rbp
  400c2d:	ff d0                	callq  *%rax
  400c2f:	5d                   	pop    %rbp
  400c30:	e9 7b ff ff ff       	jmpq   400bb0 <register_tm_clones>
  400c35:	0f 1f 00             	nopl   (%rax)
  400c38:	e9 73 ff ff ff       	jmpq   400bb0 <register_tm_clones>
  400c3d:	0f 1f 00             	nopl   (%rax)

0000000000400c40 <distance>:
   dst_call_count += 1;
  400c40:	83 05 99 34 20 00 01 	addl   $0x1,0x203499(%rip)        # 6040e0 <dst_call_count>
  __asm__ __volatile__ ("rdtsc" : "=a"(lo), "=d"(hi));
  400c47:	0f 31                	rdtsc  
  return ( (unsigned long long)lo)|( ((unsigned long long)hi)<<32 );
  400c49:	49 89 d0             	mov    %rdx,%r8
      sum += SQR( ( dataset[ i ].features[ feature ] - dataset[ j ].features[ feature ] ) );
  400c4c:	48 63 ff             	movslq %edi,%rdi
  return ( (unsigned long long)lo)|( ((unsigned long long)hi)<<32 );
  400c4f:	89 c0                	mov    %eax,%eax
  400c51:	49 c1 e0 20          	shl    $0x20,%r8
      sum += SQR( ( dataset[ i ].features[ feature ] - dataset[ j ].features[ feature ] ) );
  400c55:	48 8d 0c bf          	lea    (%rdi,%rdi,4),%rcx
  400c59:	48 63 f6             	movslq %esi,%rsi
  return ( (unsigned long long)lo)|( ((unsigned long long)hi)<<32 );
  400c5c:	49 09 c0             	or     %rax,%r8
      sum += SQR( ( dataset[ i ].features[ feature ] - dataset[ j ].features[ feature ] ) );
  400c5f:	48 8d 04 b6          	lea    (%rsi,%rsi,4),%rax
  400c63:	48 c1 e1 04          	shl    $0x4,%rcx
   dst_st = rdtsc();
  400c67:	4c 89 05 62 34 20 00 	mov    %r8,0x203462(%rip)        # 6040d0 <dst_st>
      sum += SQR( ( dataset[ i ].features[ feature ] - dataset[ j ].features[ feature ] ) );
  400c6e:	48 c1 e0 04          	shl    $0x4,%rax
  400c72:	f3 0f 10 89 88 20 60 	movss  0x602088(%rcx),%xmm1
  400c79:	00 
  400c7a:	f3 0f 5c 88 88 20 60 	subss  0x602088(%rax),%xmm1
  400c81:	00 
  400c82:	f3 0f 10 81 8c 20 60 	movss  0x60208c(%rcx),%xmm0
  400c89:	00 
  400c8a:	f3 0f 5c 80 8c 20 60 	subss  0x60208c(%rax),%xmm0
  400c91:	00 
  400c92:	f3 0f 59 c9          	mulss  %xmm1,%xmm1
  400c96:	f3 0f 59 c0          	mulss  %xmm0,%xmm0
  400c9a:	0f 14 c9             	unpcklps %xmm1,%xmm1
  400c9d:	0f 14 c0             	unpcklps %xmm0,%xmm0
  400ca0:	0f 5a c9             	cvtps2pd %xmm1,%xmm1
  400ca3:	0f 5a c0             	cvtps2pd %xmm0,%xmm0
  400ca6:	f2 0f 58 0d 92 0d 00 	addsd  0xd92(%rip),%xmm1        # 401a40 <__dso_handle+0x628>
  400cad:	00 
  400cae:	f2 0f 58 c8          	addsd  %xmm0,%xmm1
  400cb2:	f3 0f 10 81 90 20 60 	movss  0x602090(%rcx),%xmm0
  400cb9:	00 
  400cba:	f3 0f 5c 80 90 20 60 	subss  0x602090(%rax),%xmm0
  400cc1:	00 
  400cc2:	f3 0f 59 c0          	mulss  %xmm0,%xmm0
  400cc6:	0f 14 c0             	unpcklps %xmm0,%xmm0
  400cc9:	0f 5a c0             	cvtps2pd %xmm0,%xmm0
  400ccc:	f2 0f 58 c8          	addsd  %xmm0,%xmm1
  400cd0:	f3 0f 10 81 94 20 60 	movss  0x602094(%rcx),%xmm0
  400cd7:	00 
  400cd8:	f3 0f 5c 80 94 20 60 	subss  0x602094(%rax),%xmm0
  400cdf:	00 
  400ce0:	f3 0f 59 c0          	mulss  %xmm0,%xmm0
  400ce4:	0f 14 c0             	unpcklps %xmm0,%xmm0
  400ce7:	0f 5a c0             	cvtps2pd %xmm0,%xmm0
  400cea:	f2 0f 58 c8          	addsd  %xmm0,%xmm1
  400cee:	f3 0f 10 81 98 20 60 	movss  0x602098(%rcx),%xmm0
  400cf5:	00 
  400cf6:	f3 0f 5c 80 98 20 60 	subss  0x602098(%rax),%xmm0
  400cfd:	00 
  400cfe:	f3 0f 59 c0          	mulss  %xmm0,%xmm0
  400d02:	0f 14 c0             	unpcklps %xmm0,%xmm0
  400d05:	0f 5a c0             	cvtps2pd %xmm0,%xmm0
  400d08:	f2 0f 58 c8          	addsd  %xmm0,%xmm1
  400d0c:	f3 0f 10 81 9c 20 60 	movss  0x60209c(%rcx),%xmm0
  400d13:	00 
  400d14:	f3 0f 5c 80 9c 20 60 	subss  0x60209c(%rax),%xmm0
  400d1b:	00 
  400d1c:	f3 0f 59 c0          	mulss  %xmm0,%xmm0
  400d20:	0f 14 c0             	unpcklps %xmm0,%xmm0
  400d23:	0f 5a c0             	cvtps2pd %xmm0,%xmm0
  400d26:	f2 0f 58 c8          	addsd  %xmm0,%xmm1
  400d2a:	f3 0f 10 81 a0 20 60 	movss  0x6020a0(%rcx),%xmm0
  400d31:	00 
  400d32:	f3 0f 5c 80 a0 20 60 	subss  0x6020a0(%rax),%xmm0
  400d39:	00 
  400d3a:	f3 0f 59 c0          	mulss  %xmm0,%xmm0
  400d3e:	0f 14 c0             	unpcklps %xmm0,%xmm0
  400d41:	0f 5a c0             	cvtps2pd %xmm0,%xmm0
  400d44:	f2 0f 58 c8          	addsd  %xmm0,%xmm1
  400d48:	f3 0f 10 81 a4 20 60 	movss  0x6020a4(%rcx),%xmm0
  400d4f:	00 
  400d50:	f3 0f 5c 80 a4 20 60 	subss  0x6020a4(%rax),%xmm0
  400d57:	00 
  400d58:	f3 0f 59 c0          	mulss  %xmm0,%xmm0
  400d5c:	0f 14 c0             	unpcklps %xmm0,%xmm0
  400d5f:	0f 5a c0             	cvtps2pd %xmm0,%xmm0
  400d62:	f2 0f 58 c8          	addsd  %xmm0,%xmm1
  400d66:	f3 0f 10 81 a8 20 60 	movss  0x6020a8(%rcx),%xmm0
  400d6d:	00 
  400d6e:	f3 0f 5c 80 a8 20 60 	subss  0x6020a8(%rax),%xmm0
  400d75:	00 
  400d76:	f3 0f 59 c0          	mulss  %xmm0,%xmm0
  400d7a:	0f 14 c0             	unpcklps %xmm0,%xmm0
  400d7d:	0f 5a c0             	cvtps2pd %xmm0,%xmm0
  400d80:	f2 0f 58 c8          	addsd  %xmm0,%xmm1
  400d84:	f3 0f 10 81 ac 20 60 	movss  0x6020ac(%rcx),%xmm0
  400d8b:	00 
  400d8c:	f3 0f 5c 80 ac 20 60 	subss  0x6020ac(%rax),%xmm0
  400d93:	00 
  400d94:	f3 0f 59 c0          	mulss  %xmm0,%xmm0
  400d98:	0f 14 c0             	unpcklps %xmm0,%xmm0
  400d9b:	0f 5a c0             	cvtps2pd %xmm0,%xmm0
  400d9e:	f2 0f 58 c8          	addsd  %xmm0,%xmm1
  400da2:	f3 0f 10 81 b0 20 60 	movss  0x6020b0(%rcx),%xmm0
  400da9:	00 
  400daa:	f3 0f 5c 80 b0 20 60 	subss  0x6020b0(%rax),%xmm0
  400db1:	00 
  400db2:	f3 0f 59 c0          	mulss  %xmm0,%xmm0
  400db6:	0f 14 c0             	unpcklps %xmm0,%xmm0
  400db9:	0f 5a c0             	cvtps2pd %xmm0,%xmm0
  400dbc:	f2 0f 58 c8          	addsd  %xmm0,%xmm1
  400dc0:	f3 0f 10 81 b4 20 60 	movss  0x6020b4(%rcx),%xmm0
  400dc7:	00 
  400dc8:	f3 0f 5c 80 b4 20 60 	subss  0x6020b4(%rax),%xmm0
  400dcf:	00 
  400dd0:	f3 0f 59 c0          	mulss  %xmm0,%xmm0
  400dd4:	0f 14 c0             	unpcklps %xmm0,%xmm0
  400dd7:	0f 5a c0             	cvtps2pd %xmm0,%xmm0
  400dda:	f2 0f 58 c8          	addsd  %xmm0,%xmm1
  400dde:	f3 0f 10 81 b8 20 60 	movss  0x6020b8(%rcx),%xmm0
  400de5:	00 
  400de6:	f3 0f 5c 80 b8 20 60 	subss  0x6020b8(%rax),%xmm0
  400ded:	00 
  400dee:	f3 0f 59 c0          	mulss  %xmm0,%xmm0
  400df2:	0f 14 c0             	unpcklps %xmm0,%xmm0
  400df5:	0f 5a c0             	cvtps2pd %xmm0,%xmm0
  400df8:	f2 0f 58 c8          	addsd  %xmm0,%xmm1
  400dfc:	f3 0f 10 81 bc 20 60 	movss  0x6020bc(%rcx),%xmm0
  400e03:	00 
  400e04:	f3 0f 5c 80 bc 20 60 	subss  0x6020bc(%rax),%xmm0
  400e0b:	00 
  400e0c:	f3 0f 59 c0          	mulss  %xmm0,%xmm0
  400e10:	0f 14 c0             	unpcklps %xmm0,%xmm0
  400e13:	0f 5a c0             	cvtps2pd %xmm0,%xmm0
  400e16:	f2 0f 58 c8          	addsd  %xmm0,%xmm1
  400e1a:	f3 0f 10 81 c0 20 60 	movss  0x6020c0(%rcx),%xmm0
  400e21:	00 
  400e22:	f3 0f 5c 80 c0 20 60 	subss  0x6020c0(%rax),%xmm0
  400e29:	00 
  400e2a:	f3 0f 59 c0          	mulss  %xmm0,%xmm0
  400e2e:	0f 14 c0             	unpcklps %xmm0,%xmm0
  400e31:	0f 5a c0             	cvtps2pd %xmm0,%xmm0
  400e34:	f2 0f 58 c8          	addsd  %xmm0,%xmm1
  400e38:	f3 0f 10 81 c4 20 60 	movss  0x6020c4(%rcx),%xmm0
  400e3f:	00 
  400e40:	f3 0f 5c 80 c4 20 60 	subss  0x6020c4(%rax),%xmm0
  400e47:	00 
  __asm__ __volatile__ ("rdtsc" : "=a"(lo), "=d"(hi));
  400e48:	0f 31                	rdtsc  
      sum += SQR( ( dataset[ i ].features[ feature ] - dataset[ j ].features[ feature ] ) );
  400e4a:	f3 0f 59 c0          	mulss  %xmm0,%xmm0
  return ( (unsigned long long)lo)|( ((unsigned long long)hi)<<32 );
  400e4e:	48 c1 e2 20          	shl    $0x20,%rdx
  400e52:	89 c0                	mov    %eax,%eax
  400e54:	48 09 c2             	or     %rax,%rdx
   dst_et = rdtsc();
  400e57:	48 89 15 6a 32 20 00 	mov    %rdx,0x20326a(%rip)        # 6040c8 <dst_et>
   dst_cycles += (dst_et - dst_st);
  400e5e:	4c 29 c2             	sub    %r8,%rdx
  400e61:	48 01 15 58 32 20 00 	add    %rdx,0x203258(%rip)        # 6040c0 <dst_cycles>
      sum += SQR( ( dataset[ i ].features[ feature ] - dataset[ j ].features[ feature ] ) );
  400e68:	0f 14 c0             	unpcklps %xmm0,%xmm0
  400e6b:	0f 5a d0             	cvtps2pd %xmm0,%xmm2
  400e6e:	f2 0f 58 d1          	addsd  %xmm1,%xmm2
   return sqrt( sum );
  400e72:	f2 0f 51 c2          	sqrtsd %xmm2,%xmm0
  400e76:	66 0f 2e c0          	ucomisd %xmm0,%xmm0
  400e7a:	7a 02                	jp     400e7e <distance+0x23e>
}
  400e7c:	f3 c3                	repz retq 
   return sqrt( sum );
  400e7e:	66 0f 28 c2          	movapd %xmm2,%xmm0
{
  400e82:	48 83 ec 08          	sub    $0x8,%rsp
   return sqrt( sum );
  400e86:	e8 85 f7 ff ff       	callq  400610 <sqrt@plt>
}
  400e8b:	48 83 c4 08          	add    $0x8,%rsp
  400e8f:	eb eb                	jmp    400e7c <distance+0x23c>
  400e91:	0f 1f 44 00 00       	nopl   0x0(%rax,%rax,1)
  400e96:	66 2e 0f 1f 84 00 00 	nopw   %cs:0x0(%rax,%rax,1)
  400e9d:	00 00 00 

0000000000400ea0 <find_neighbors>:
{
  400ea0:	41 56                	push   %r14
  400ea2:	41 55                	push   %r13
  400ea4:	41 89 fd             	mov    %edi,%r13d
   neighbors_t *neighbor = ( neighbors_t * )malloc( sizeof( neighbors_t ) );
  400ea7:	bf a0 01 00 00       	mov    $0x1a0,%edi
{
  400eac:	41 54                	push   %r12
   bzero( (void *)neighbor, sizeof( neighbors_t ) );
  400eae:	45 31 e4             	xor    %r12d,%r12d
{
  400eb1:	55                   	push   %rbp
  400eb2:	53                   	push   %rbx
  400eb3:	bb 88 20 60 00       	mov    $0x602088,%ebx
   neighbors_t *neighbor = ( neighbors_t * )malloc( sizeof( neighbors_t ) );
  400eb8:	e8 33 f7 ff ff       	callq  4005f0 <malloc@plt>
   bzero( (void *)neighbor, sizeof( neighbors_t ) );
  400ebd:	be a0 01 00 00       	mov    $0x1a0,%esi
  400ec2:	48 89 c7             	mov    %rax,%rdi
   neighbors_t *neighbor = ( neighbors_t * )malloc( sizeof( neighbors_t ) );
  400ec5:	49 89 c6             	mov    %rax,%r14
   bzero( (void *)neighbor, sizeof( neighbors_t ) );
  400ec8:	e8 33 f7 ff ff       	callq  400600 <bzero@plt>
      sum += SQR( ( dataset[ i ].features[ feature ] - dataset[ j ].features[ feature ] ) );
  400ecd:	49 63 c5             	movslq %r13d,%rax
  400ed0:	48 8d 2c 80          	lea    (%rax,%rax,4),%rbp
  400ed4:	48 c1 e5 04          	shl    $0x4,%rbp
  400ed8:	0f 1f 84 00 00 00 00 	nopl   0x0(%rax,%rax,1)
  400edf:	00 
      if ( i == observation ) continue;
  400ee0:	45 39 e5             	cmp    %r12d,%r13d
  400ee3:	0f 84 10 02 00 00    	je     4010f9 <find_neighbors+0x259>
   dst_call_count += 1;
  400ee9:	83 05 f0 31 20 00 01 	addl   $0x1,0x2031f0(%rip)        # 6040e0 <dst_call_count>
  __asm__ __volatile__ ("rdtsc" : "=a"(lo), "=d"(hi));
  400ef0:	0f 31                	rdtsc  
      sum += SQR( ( dataset[ i ].features[ feature ] - dataset[ j ].features[ feature ] ) );
  400ef2:	f3 0f 10 8d 88 20 60 	movss  0x602088(%rbp),%xmm1
  400ef9:	00 
  return ( (unsigned long long)lo)|( ((unsigned long long)hi)<<32 );
  400efa:	48 89 d1             	mov    %rdx,%rcx
      sum += SQR( ( dataset[ i ].features[ feature ] - dataset[ j ].features[ feature ] ) );
  400efd:	f3 0f 5c 0b          	subss  (%rbx),%xmm1
  return ( (unsigned long long)lo)|( ((unsigned long long)hi)<<32 );
  400f01:	48 c1 e1 20          	shl    $0x20,%rcx
  400f05:	89 c0                	mov    %eax,%eax
      sum += SQR( ( dataset[ i ].features[ feature ] - dataset[ j ].features[ feature ] ) );
  400f07:	f3 0f 10 85 8c 20 60 	movss  0x60208c(%rbp),%xmm0
  400f0e:	00 
  return ( (unsigned long long)lo)|( ((unsigned long long)hi)<<32 );
  400f0f:	48 09 c1             	or     %rax,%rcx
      sum += SQR( ( dataset[ i ].features[ feature ] - dataset[ j ].features[ feature ] ) );
  400f12:	f3 0f 5c 43 04       	subss  0x4(%rbx),%xmm0
   dst_st = rdtsc();
  400f17:	48 89 0d b2 31 20 00 	mov    %rcx,0x2031b2(%rip)        # 6040d0 <dst_st>
      sum += SQR( ( dataset[ i ].features[ feature ] - dataset[ j ].features[ feature ] ) );
  400f1e:	f3 0f 59 c9          	mulss  %xmm1,%xmm1
  400f22:	f3 0f 59 c0          	mulss  %xmm0,%xmm0
  400f26:	0f 14 c9             	unpcklps %xmm1,%xmm1
  400f29:	0f 14 c0             	unpcklps %xmm0,%xmm0
  400f2c:	0f 5a c9             	cvtps2pd %xmm1,%xmm1
  400f2f:	0f 5a c0             	cvtps2pd %xmm0,%xmm0
  400f32:	f2 0f 58 0d 06 0b 00 	addsd  0xb06(%rip),%xmm1        # 401a40 <__dso_handle+0x628>
  400f39:	00 
  400f3a:	f2 0f 58 c8          	addsd  %xmm0,%xmm1
  400f3e:	f3 0f 10 85 90 20 60 	movss  0x602090(%rbp),%xmm0
  400f45:	00 
  400f46:	f3 0f 5c 43 08       	subss  0x8(%rbx),%xmm0
  400f4b:	f3 0f 59 c0          	mulss  %xmm0,%xmm0
  400f4f:	0f 14 c0             	unpcklps %xmm0,%xmm0
  400f52:	0f 5a c0             	cvtps2pd %xmm0,%xmm0
  400f55:	f2 0f 58 c8          	addsd  %xmm0,%xmm1
  400f59:	f3 0f 10 85 94 20 60 	movss  0x602094(%rbp),%xmm0
  400f60:	00 
  400f61:	f3 0f 5c 43 0c       	subss  0xc(%rbx),%xmm0
  400f66:	f3 0f 59 c0          	mulss  %xmm0,%xmm0
  400f6a:	0f 14 c0             	unpcklps %xmm0,%xmm0
  400f6d:	0f 5a c0             	cvtps2pd %xmm0,%xmm0
  400f70:	f2 0f 58 c8          	addsd  %xmm0,%xmm1
  400f74:	f3 0f 10 85 98 20 60 	movss  0x602098(%rbp),%xmm0
  400f7b:	00 
  400f7c:	f3 0f 5c 43 10       	subss  0x10(%rbx),%xmm0
  400f81:	f3 0f 59 c0          	mulss  %xmm0,%xmm0
  400f85:	0f 14 c0             	unpcklps %xmm0,%xmm0
  400f88:	0f 5a c0             	cvtps2pd %xmm0,%xmm0
  400f8b:	f2 0f 58 c8          	addsd  %xmm0,%xmm1
  400f8f:	f3 0f 10 85 9c 20 60 	movss  0x60209c(%rbp),%xmm0
  400f96:	00 
  400f97:	f3 0f 5c 43 14       	subss  0x14(%rbx),%xmm0
  400f9c:	f3 0f 59 c0          	mulss  %xmm0,%xmm0
  400fa0:	0f 14 c0             	unpcklps %xmm0,%xmm0
  400fa3:	0f 5a c0             	cvtps2pd %xmm0,%xmm0
  400fa6:	f2 0f 58 c8          	addsd  %xmm0,%xmm1
  400faa:	f3 0f 10 85 a0 20 60 	movss  0x6020a0(%rbp),%xmm0
  400fb1:	00 
  400fb2:	f3 0f 5c 43 18       	subss  0x18(%rbx),%xmm0
  400fb7:	f3 0f 59 c0          	mulss  %xmm0,%xmm0
  400fbb:	0f 14 c0             	unpcklps %xmm0,%xmm0
  400fbe:	0f 5a c0             	cvtps2pd %xmm0,%xmm0
  400fc1:	f2 0f 58 c8          	addsd  %xmm0,%xmm1
  400fc5:	f3 0f 10 85 a4 20 60 	movss  0x6020a4(%rbp),%xmm0
  400fcc:	00 
  400fcd:	f3 0f 5c 43 1c       	subss  0x1c(%rbx),%xmm0
  400fd2:	f3 0f 59 c0          	mulss  %xmm0,%xmm0
  400fd6:	0f 14 c0             	unpcklps %xmm0,%xmm0
  400fd9:	0f 5a c0             	cvtps2pd %xmm0,%xmm0
  400fdc:	f2 0f 58 c8          	addsd  %xmm0,%xmm1
  400fe0:	f3 0f 10 85 a8 20 60 	movss  0x6020a8(%rbp),%xmm0
  400fe7:	00 
  400fe8:	f3 0f 5c 43 20       	subss  0x20(%rbx),%xmm0
  400fed:	f3 0f 59 c0          	mulss  %xmm0,%xmm0
  400ff1:	0f 14 c0             	unpcklps %xmm0,%xmm0
  400ff4:	0f 5a c0             	cvtps2pd %xmm0,%xmm0
  400ff7:	f2 0f 58 c8          	addsd  %xmm0,%xmm1
  400ffb:	f3 0f 10 85 ac 20 60 	movss  0x6020ac(%rbp),%xmm0
  401002:	00 
  401003:	f3 0f 5c 43 24       	subss  0x24(%rbx),%xmm0
  401008:	f3 0f 59 c0          	mulss  %xmm0,%xmm0
  40100c:	0f 14 c0             	unpcklps %xmm0,%xmm0
  40100f:	0f 5a c0             	cvtps2pd %xmm0,%xmm0
  401012:	f2 0f 58 c8          	addsd  %xmm0,%xmm1
  401016:	f3 0f 10 85 b0 20 60 	movss  0x6020b0(%rbp),%xmm0
  40101d:	00 
  40101e:	f3 0f 5c 43 28       	subss  0x28(%rbx),%xmm0
  401023:	f3 0f 59 c0          	mulss  %xmm0,%xmm0
  401027:	0f 14 c0             	unpcklps %xmm0,%xmm0
  40102a:	0f 5a c0             	cvtps2pd %xmm0,%xmm0
  40102d:	f2 0f 58 c8          	addsd  %xmm0,%xmm1
  401031:	f3 0f 10 85 b4 20 60 	movss  0x6020b4(%rbp),%xmm0
  401038:	00 
  401039:	f3 0f 5c 43 2c       	subss  0x2c(%rbx),%xmm0
  40103e:	f3 0f 59 c0          	mulss  %xmm0,%xmm0
  401042:	0f 14 c0             	unpcklps %xmm0,%xmm0
  401045:	0f 5a c0             	cvtps2pd %xmm0,%xmm0
  401048:	f2 0f 58 c8          	addsd  %xmm0,%xmm1
  40104c:	f3 0f 10 85 b8 20 60 	movss  0x6020b8(%rbp),%xmm0
  401053:	00 
  401054:	f3 0f 5c 43 30       	subss  0x30(%rbx),%xmm0
  401059:	f3 0f 59 c0          	mulss  %xmm0,%xmm0
  40105d:	0f 14 c0             	unpcklps %xmm0,%xmm0
  401060:	0f 5a c0             	cvtps2pd %xmm0,%xmm0
  401063:	f2 0f 58 c8          	addsd  %xmm0,%xmm1
  401067:	f3 0f 10 85 bc 20 60 	movss  0x6020bc(%rbp),%xmm0
  40106e:	00 
  40106f:	f3 0f 5c 43 34       	subss  0x34(%rbx),%xmm0
  401074:	f3 0f 59 c0          	mulss  %xmm0,%xmm0
  401078:	0f 14 c0             	unpcklps %xmm0,%xmm0
  40107b:	0f 5a c0             	cvtps2pd %xmm0,%xmm0
  40107e:	f2 0f 58 c8          	addsd  %xmm0,%xmm1
  401082:	f3 0f 10 85 c0 20 60 	movss  0x6020c0(%rbp),%xmm0
  401089:	00 
  40108a:	f3 0f 5c 43 38       	subss  0x38(%rbx),%xmm0
  40108f:	f3 0f 59 c0          	mulss  %xmm0,%xmm0
  401093:	0f 14 c0             	unpcklps %xmm0,%xmm0
  401096:	0f 5a c0             	cvtps2pd %xmm0,%xmm0
  401099:	f2 0f 58 c8          	addsd  %xmm0,%xmm1
  40109d:	f3 0f 10 85 c4 20 60 	movss  0x6020c4(%rbp),%xmm0
  4010a4:	00 
  4010a5:	f3 0f 5c 43 3c       	subss  0x3c(%rbx),%xmm0
  __asm__ __volatile__ ("rdtsc" : "=a"(lo), "=d"(hi));
  4010aa:	0f 31                	rdtsc  
      sum += SQR( ( dataset[ i ].features[ feature ] - dataset[ j ].features[ feature ] ) );
  4010ac:	f3 0f 59 c0          	mulss  %xmm0,%xmm0
  return ( (unsigned long long)lo)|( ((unsigned long long)hi)<<32 );
  4010b0:	48 c1 e2 20          	shl    $0x20,%rdx
  4010b4:	89 c0                	mov    %eax,%eax
  4010b6:	48 09 c2             	or     %rax,%rdx
   dst_et = rdtsc();
  4010b9:	48 89 15 08 30 20 00 	mov    %rdx,0x203008(%rip)        # 6040c8 <dst_et>
   dst_cycles += (dst_et - dst_st);
  4010c0:	48 29 ca             	sub    %rcx,%rdx
  4010c3:	48 01 15 f6 2f 20 00 	add    %rdx,0x202ff6(%rip)        # 6040c0 <dst_cycles>
      sum += SQR( ( dataset[ i ].features[ feature ] - dataset[ j ].features[ feature ] ) );
  4010ca:	0f 14 c0             	unpcklps %xmm0,%xmm0
  4010cd:	0f 5a c0             	cvtps2pd %xmm0,%xmm0
  4010d0:	f2 0f 58 c8          	addsd  %xmm0,%xmm1
   return sqrt( sum );
  4010d4:	f2 0f 51 c1          	sqrtsd %xmm1,%xmm0
  4010d8:	66 0f 2e c0          	ucomisd %xmm0,%xmm0
  4010dc:	7a 39                	jp     401117 <find_neighbors+0x277>
      if ( distance( observation, i ) <= EPSILON ) //dbscan calls find neighbors
  4010de:	f2 0f 10 0d 62 09 00 	movsd  0x962(%rip),%xmm1        # 401a48 <__dso_handle+0x630>
  4010e5:	00 
  4010e6:	66 0f 2e c8          	ucomisd %xmm0,%xmm1
  4010ea:	72 0d                	jb     4010f9 <find_neighbors+0x259>
         neighbor->neighbor[ i ] = 1;
  4010ec:	43 c7 44 a6 04 01 00 	movl   $0x1,0x4(%r14,%r12,4)
  4010f3:	00 00 
         neighbor->neighbor_count++;
  4010f5:	41 83 06 01          	addl   $0x1,(%r14)
  4010f9:	49 83 c4 01          	add    $0x1,%r12
  4010fd:	48 83 c3 50          	add    $0x50,%rbx
   for ( int i = 0 ; i < OBSERVATIONS ; i++ )
  401101:	49 83 fc 67          	cmp    $0x67,%r12
  401105:	0f 85 d5 fd ff ff    	jne    400ee0 <find_neighbors+0x40>
}
  40110b:	5b                   	pop    %rbx
  40110c:	5d                   	pop    %rbp
  40110d:	41 5c                	pop    %r12
  40110f:	41 5d                	pop    %r13
  401111:	4c 89 f0             	mov    %r14,%rax
  401114:	41 5e                	pop    %r14
  401116:	c3                   	retq   
   return sqrt( sum );
  401117:	66 0f 28 c1          	movapd %xmm1,%xmm0
  40111b:	e8 f0 f4 ff ff       	callq  400610 <sqrt@plt>
  401120:	eb bc                	jmp    4010de <find_neighbors+0x23e>
  401122:	0f 1f 40 00          	nopl   0x0(%rax)
  401126:	66 2e 0f 1f 84 00 00 	nopw   %cs:0x0(%rax,%rax,1)
  40112d:	00 00 00 

0000000000401130 <free_neighbors>:
   free( neighbors );
  401130:	e9 5b f4 ff ff       	jmpq   400590 <free@plt>
  401135:	90                   	nop
  401136:	66 2e 0f 1f 84 00 00 	nopw   %cs:0x0(%rax,%rax,1)
  40113d:	00 00 00 

0000000000401140 <fold_neighbors>:
{
  401140:	31 c0                	xor    %eax,%eax
  401142:	66 0f 1f 44 00 00    	nopw   0x0(%rax,%rax,1)
      if ( neighbors->neighbor[ i ] )
  401148:	8b 54 06 04          	mov    0x4(%rsi,%rax,1),%edx
  40114c:	85 d2                	test   %edx,%edx
  40114e:	74 08                	je     401158 <fold_neighbors+0x18>
         seed_set->neighbor[ i ] = 1;
  401150:	c7 44 07 04 01 00 00 	movl   $0x1,0x4(%rdi,%rax,1)
  401157:	00 
  401158:	48 83 c0 04          	add    $0x4,%rax
   for ( int i = 0 ; i < OBSERVATIONS ; i++ )
  40115c:	48 3d 9c 01 00 00    	cmp    $0x19c,%rax
  401162:	75 e4                	jne    401148 <fold_neighbors+0x8>
}
  401164:	f3 c3                	repz retq 
  401166:	66 2e 0f 1f 84 00 00 	nopw   %cs:0x0(%rax,%rax,1)
  40116d:	00 00 00 

0000000000401170 <process_neighbors>:
{
  401170:	41 55                	push   %r13
  401172:	41 54                	push   %r12
  401174:	4c 63 e7             	movslq %edi,%r12
            dataset[ i ].label = dataset[ initial_point ].label;
  401177:	4f 8d 2c a4          	lea    (%r12,%r12,4),%r13
{
  40117b:	55                   	push   %rbp
   for ( int i = 0 ; i < OBSERVATIONS ; i++ )
  40117c:	31 ed                	xor    %ebp,%ebp
            dataset[ i ].label = dataset[ initial_point ].label;
  40117e:	49 c1 e5 04          	shl    $0x4,%r13
{
  401182:	53                   	push   %rbx
  401183:	48 89 f3             	mov    %rsi,%rbx
  401186:	48 83 ec 08          	sub    $0x8,%rsp
  40118a:	66 0f 1f 44 00 00    	nopw   0x0(%rax,%rax,1)
  401190:	48 63 c5             	movslq %ebp,%rax
  401193:	48 8d 14 85 00 00 00 	lea    0x0(,%rax,4),%rdx
  40119a:	00 
  40119b:	48 8d 0c 13          	lea    (%rbx,%rdx,1),%rcx
      if ( seed_set->neighbor[ i ] )
  40119f:	8b 71 04             	mov    0x4(%rcx),%esi
  4011a2:	85 f6                	test   %esi,%esi
  4011a4:	0f 84 96 00 00 00    	je     401240 <process_neighbors+0xd0>
         if ( dataset[ i ].label == NOISE )
  4011aa:	48 01 c2             	add    %rax,%rdx
         seed_set->neighbor[ i ] = 0;
  4011ad:	c7 41 04 00 00 00 00 	movl   $0x0,0x4(%rcx)
         if ( dataset[ i ].label == NOISE )
  4011b4:	48 c1 e2 04          	shl    $0x4,%rdx
  4011b8:	8b 8a cc 20 60 00    	mov    0x6020cc(%rdx),%ecx
  4011be:	48 81 c2 c0 20 60 00 	add    $0x6020c0,%rdx
  4011c5:	83 f9 08             	cmp    $0x8,%ecx
  4011c8:	74 7b                	je     401245 <process_neighbors+0xd5>
         else if ( dataset[ i ].label != UNDEFINED )
  4011ca:	85 c9                	test   %ecx,%ecx
  4011cc:	75 72                	jne    401240 <process_neighbors+0xd0>
         dataset[ i ].label = dataset[ initial_point ].label;
  4011ce:	4b 8d 14 a4          	lea    (%r12,%r12,4),%rdx
  4011d2:	48 8d 04 80          	lea    (%rax,%rax,4),%rax
         neighbors_t *neighbors = find_neighbors( i );
  4011d6:	89 ef                	mov    %ebp,%edi
  4011d8:	83 c5 01             	add    $0x1,%ebp
         dataset[ i ].label = dataset[ initial_point ].label;
  4011db:	48 c1 e2 04          	shl    $0x4,%rdx
  4011df:	48 c1 e0 04          	shl    $0x4,%rax
  4011e3:	8b 92 cc 20 60 00    	mov    0x6020cc(%rdx),%edx
  4011e9:	89 90 cc 20 60 00    	mov    %edx,0x6020cc(%rax)
         neighbors_t *neighbors = find_neighbors( i );
  4011ef:	e8 ac fc ff ff       	callq  400ea0 <find_neighbors>
         if ( neighbors->neighbor_count >= MINPTS )
  4011f4:	83 38 03             	cmpl   $0x3,(%rax)
  4011f7:	7e 29                	jle    401222 <process_neighbors+0xb2>
  4011f9:	31 d2                	xor    %edx,%edx
  4011fb:	0f 1f 44 00 00       	nopl   0x0(%rax,%rax,1)
      if ( neighbors->neighbor[ i ] )
  401200:	8b 4c 10 04          	mov    0x4(%rax,%rdx,1),%ecx
  401204:	85 c9                	test   %ecx,%ecx
  401206:	74 08                	je     401210 <process_neighbors+0xa0>
         seed_set->neighbor[ i ] = 1;
  401208:	c7 44 13 04 01 00 00 	movl   $0x1,0x4(%rbx,%rdx,1)
  40120f:	00 
  401210:	48 83 c2 04          	add    $0x4,%rdx
   for ( int i = 0 ; i < OBSERVATIONS ; i++ )
  401214:	48 81 fa 9c 01 00 00 	cmp    $0x19c,%rdx
  40121b:	75 e3                	jne    401200 <process_neighbors+0x90>
  40121d:	bd 01 00 00 00       	mov    $0x1,%ebp
   free( neighbors );
  401222:	48 89 c7             	mov    %rax,%rdi
  401225:	e8 66 f3 ff ff       	callq  400590 <free@plt>
   for ( int i = 0 ; i < OBSERVATIONS ; i++ )
  40122a:	83 fd 66             	cmp    $0x66,%ebp
  40122d:	0f 8e 5d ff ff ff    	jle    401190 <process_neighbors+0x20>
}
  401233:	48 83 c4 08          	add    $0x8,%rsp
  401237:	5b                   	pop    %rbx
  401238:	5d                   	pop    %rbp
  401239:	41 5c                	pop    %r12
  40123b:	41 5d                	pop    %r13
  40123d:	c3                   	retq   
  40123e:	66 90                	xchg   %ax,%ax
         else if ( dataset[ i ].label != UNDEFINED )
  401240:	83 c5 01             	add    $0x1,%ebp
  401243:	eb e5                	jmp    40122a <process_neighbors+0xba>
            dataset[ i ].label = dataset[ initial_point ].label;
  401245:	41 8b 8d cc 20 60 00 	mov    0x6020cc(%r13),%ecx
  40124c:	89 4a 0c             	mov    %ecx,0xc(%rdx)
  40124f:	e9 7a ff ff ff       	jmpq   4011ce <process_neighbors+0x5e>
  401254:	66 90                	xchg   %ax,%ax
  401256:	66 2e 0f 1f 84 00 00 	nopw   %cs:0x0(%rax,%rax,1)
  40125d:	00 00 00 

0000000000401260 <dbscan>:
{
  401260:	41 56                	push   %r14
  401262:	41 be cc 20 60 00    	mov    $0x6020cc,%r14d
  401268:	41 55                	push   %r13
   int cluster = 0;
  40126a:	45 31 ed             	xor    %r13d,%r13d
{
  40126d:	41 54                	push   %r12
   for ( int i = 0 ; i < OBSERVATIONS ; i++ )
  40126f:	45 31 e4             	xor    %r12d,%r12d
{
  401272:	55                   	push   %rbp
  401273:	53                   	push   %rbx
  401274:	eb 18                	jmp    40128e <dbscan+0x2e>
  401276:	66 2e 0f 1f 84 00 00 	nopw   %cs:0x0(%rax,%rax,1)
  40127d:	00 00 00 
   for ( int i = 0 ; i < OBSERVATIONS ; i++ )
  401280:	41 83 c4 01          	add    $0x1,%r12d
  401284:	49 83 c6 50          	add    $0x50,%r14
  401288:	41 83 fc 67          	cmp    $0x67,%r12d
  40128c:	74 34                	je     4012c2 <dbscan+0x62>
      if ( dataset[ i ].label != UNDEFINED ) continue;
  40128e:	41 8b 3e             	mov    (%r14),%edi
  401291:	85 ff                	test   %edi,%edi
  401293:	75 eb                	jne    401280 <dbscan+0x20>
      neighbors_t *neighbors = find_neighbors( i );
  401295:	44 89 e7             	mov    %r12d,%edi
  401298:	e8 03 fc ff ff       	callq  400ea0 <find_neighbors>
      if ( neighbors->neighbor_count < MINPTS )
  40129d:	83 38 03             	cmpl   $0x3,(%rax)
      neighbors_t *neighbors = find_neighbors( i );
  4012a0:	48 89 c3             	mov    %rax,%rbx
      if ( neighbors->neighbor_count < MINPTS )
  4012a3:	7f 29                	jg     4012ce <dbscan+0x6e>
   free( neighbors );
  4012a5:	48 89 c7             	mov    %rax,%rdi
   for ( int i = 0 ; i < OBSERVATIONS ; i++ )
  4012a8:	41 83 c4 01          	add    $0x1,%r12d
         dataset[ i ].label = NOISE;
  4012ac:	41 c7 06 08 00 00 00 	movl   $0x8,(%r14)
   free( neighbors );
  4012b3:	e8 d8 f2 ff ff       	callq  400590 <free@plt>
  4012b8:	49 83 c6 50          	add    $0x50,%r14
   for ( int i = 0 ; i < OBSERVATIONS ; i++ )
  4012bc:	41 83 fc 67          	cmp    $0x67,%r12d
  4012c0:	75 cc                	jne    40128e <dbscan+0x2e>
}
  4012c2:	5b                   	pop    %rbx
  4012c3:	5d                   	pop    %rbp
  4012c4:	41 5c                	pop    %r12
  4012c6:	44 89 e8             	mov    %r13d,%eax
  4012c9:	41 5d                	pop    %r13
  4012cb:	41 5e                	pop    %r14
  4012cd:	c3                   	retq   
      dataset[ i ].label = ++cluster;
  4012ce:	41 83 c5 01          	add    $0x1,%r13d
   for ( int i = 0 ; i < OBSERVATIONS ; i++ )
  4012d2:	31 ed                	xor    %ebp,%ebp
      dataset[ i ].label = ++cluster;
  4012d4:	45 89 2e             	mov    %r13d,(%r14)
  4012d7:	66 0f 1f 84 00 00 00 	nopw   0x0(%rax,%rax,1)
  4012de:	00 00 
  4012e0:	48 63 c5             	movslq %ebp,%rax
  4012e3:	48 8d 14 85 00 00 00 	lea    0x0(,%rax,4),%rdx
  4012ea:	00 
  4012eb:	48 8d 0c 13          	lea    (%rbx,%rdx,1),%rcx
      if ( seed_set->neighbor[ i ] )
  4012ef:	8b 71 04             	mov    0x4(%rcx),%esi
  4012f2:	85 f6                	test   %esi,%esi
  4012f4:	0f 84 86 00 00 00    	je     401380 <dbscan+0x120>
         if ( dataset[ i ].label == NOISE )
  4012fa:	48 01 c2             	add    %rax,%rdx
         seed_set->neighbor[ i ] = 0;
  4012fd:	c7 41 04 00 00 00 00 	movl   $0x0,0x4(%rcx)
         if ( dataset[ i ].label == NOISE )
  401304:	48 c1 e2 04          	shl    $0x4,%rdx
  401308:	8b 8a cc 20 60 00    	mov    0x6020cc(%rdx),%ecx
  40130e:	48 81 c2 c0 20 60 00 	add    $0x6020c0,%rdx
  401315:	83 f9 08             	cmp    $0x8,%ecx
  401318:	74 6b                	je     401385 <dbscan+0x125>
         else if ( dataset[ i ].label != UNDEFINED )
  40131a:	85 c9                	test   %ecx,%ecx
  40131c:	75 62                	jne    401380 <dbscan+0x120>
         dataset[ i ].label = dataset[ initial_point ].label;
  40131e:	41 8b 16             	mov    (%r14),%edx
  401321:	48 8d 04 80          	lea    (%rax,%rax,4),%rax
         neighbors_t *neighbors = find_neighbors( i );
  401325:	89 ef                	mov    %ebp,%edi
  401327:	83 c5 01             	add    $0x1,%ebp
         dataset[ i ].label = dataset[ initial_point ].label;
  40132a:	48 c1 e0 04          	shl    $0x4,%rax
  40132e:	89 90 cc 20 60 00    	mov    %edx,0x6020cc(%rax)
         neighbors_t *neighbors = find_neighbors( i );
  401334:	e8 67 fb ff ff       	callq  400ea0 <find_neighbors>
         if ( neighbors->neighbor_count >= MINPTS )
  401339:	83 38 03             	cmpl   $0x3,(%rax)
  40133c:	7e 24                	jle    401362 <dbscan+0x102>
  40133e:	31 d2                	xor    %edx,%edx
      if ( neighbors->neighbor[ i ] )
  401340:	8b 4c 10 04          	mov    0x4(%rax,%rdx,1),%ecx
  401344:	85 c9                	test   %ecx,%ecx
  401346:	74 08                	je     401350 <dbscan+0xf0>
         seed_set->neighbor[ i ] = 1;
  401348:	c7 44 13 04 01 00 00 	movl   $0x1,0x4(%rbx,%rdx,1)
  40134f:	00 
  401350:	48 83 c2 04          	add    $0x4,%rdx
   for ( int i = 0 ; i < OBSERVATIONS ; i++ )
  401354:	48 81 fa 9c 01 00 00 	cmp    $0x19c,%rdx
  40135b:	75 e3                	jne    401340 <dbscan+0xe0>
  40135d:	bd 01 00 00 00       	mov    $0x1,%ebp
   free( neighbors );
  401362:	48 89 c7             	mov    %rax,%rdi
  401365:	e8 26 f2 ff ff       	callq  400590 <free@plt>
   for ( int i = 0 ; i < OBSERVATIONS ; i++ )
  40136a:	83 fd 66             	cmp    $0x66,%ebp
  40136d:	0f 8e 6d ff ff ff    	jle    4012e0 <dbscan+0x80>
   free( neighbors );
  401373:	48 89 df             	mov    %rbx,%rdi
  401376:	e8 15 f2 ff ff       	callq  400590 <free@plt>
  40137b:	e9 00 ff ff ff       	jmpq   401280 <dbscan+0x20>
         else if ( dataset[ i ].label != UNDEFINED )
  401380:	83 c5 01             	add    $0x1,%ebp
  401383:	eb e5                	jmp    40136a <dbscan+0x10a>
            dataset[ i ].label = dataset[ initial_point ].label;
  401385:	41 8b 0e             	mov    (%r14),%ecx
  401388:	89 4a 0c             	mov    %ecx,0xc(%rdx)
  40138b:	eb 91                	jmp    40131e <dbscan+0xbe>
  40138d:	0f 1f 00             	nopl   (%rax)

0000000000401390 <__libc_csu_init>:
  401390:	41 57                	push   %r15
  401392:	41 89 ff             	mov    %edi,%r15d
  401395:	41 56                	push   %r14
  401397:	49 89 f6             	mov    %rsi,%r14
  40139a:	41 55                	push   %r13
  40139c:	49 89 d5             	mov    %rdx,%r13
  40139f:	41 54                	push   %r12
  4013a1:	4c 8d 25 58 0a 20 00 	lea    0x200a58(%rip),%r12        # 601e00 <__frame_dummy_init_array_entry>
  4013a8:	55                   	push   %rbp
  4013a9:	48 8d 2d 58 0a 20 00 	lea    0x200a58(%rip),%rbp        # 601e08 <__init_array_end>
  4013b0:	53                   	push   %rbx
  4013b1:	4c 29 e5             	sub    %r12,%rbp
  4013b4:	31 db                	xor    %ebx,%ebx
  4013b6:	48 c1 fd 03          	sar    $0x3,%rbp
  4013ba:	48 83 ec 08          	sub    $0x8,%rsp
  4013be:	e8 9d f1 ff ff       	callq  400560 <_init>
  4013c3:	48 85 ed             	test   %rbp,%rbp
  4013c6:	74 1e                	je     4013e6 <__libc_csu_init+0x56>
  4013c8:	0f 1f 84 00 00 00 00 	nopl   0x0(%rax,%rax,1)
  4013cf:	00 
  4013d0:	4c 89 ea             	mov    %r13,%rdx
  4013d3:	4c 89 f6             	mov    %r14,%rsi
  4013d6:	44 89 ff             	mov    %r15d,%edi
  4013d9:	41 ff 14 dc          	callq  *(%r12,%rbx,8)
  4013dd:	48 83 c3 01          	add    $0x1,%rbx
  4013e1:	48 39 eb             	cmp    %rbp,%rbx
  4013e4:	75 ea                	jne    4013d0 <__libc_csu_init+0x40>
  4013e6:	48 83 c4 08          	add    $0x8,%rsp
  4013ea:	5b                   	pop    %rbx
  4013eb:	5d                   	pop    %rbp
  4013ec:	41 5c                	pop    %r12
  4013ee:	41 5d                	pop    %r13
  4013f0:	41 5e                	pop    %r14
  4013f2:	41 5f                	pop    %r15
  4013f4:	c3                   	retq   
  4013f5:	90                   	nop
  4013f6:	66 2e 0f 1f 84 00 00 	nopw   %cs:0x0(%rax,%rax,1)
  4013fd:	00 00 00 

0000000000401400 <__libc_csu_fini>:
  401400:	f3 c3                	repz retq 

Disassembly of section .fini:

0000000000401404 <_fini>:
  401404:	48 83 ec 08          	sub    $0x8,%rsp
  401408:	48 83 c4 08          	add    $0x8,%rsp
  40140c:	c3                   	retq   
