
./dbscan:     file format elf64-x86-64
architecture: i386:x86-64, flags 0x00000112:
EXEC_P, HAS_SYMS, D_PAGED
start address 0x0000000000400820

Contents of section .interp:
 400238 2f6c6962 36342f6c 642d6c69 6e75782d  /lib64/ld-linux-
 400248 7838362d 36342e73 6f2e3200           x86-64.so.2.    
Contents of section .note.ABI-tag:
 400254 04000000 10000000 01000000 474e5500  ............GNU.
 400264 00000000 02000000 06000000 20000000  ............ ...
Contents of section .note.gnu.build-id:
 400274 04000000 14000000 03000000 474e5500  ............GNU.
 400284 b1cd0f83 06e08770 efdc58a3 712f1a1a  .......p..X.q/..
 400294 7f6c1a4e                             .l.N            
Contents of section .gnu.hash:
 400298 01000000 01000000 01000000 00000000  ................
 4002a8 00000000 00000000 00000000           ............    
Contents of section .dynsym:
 4002b8 00000000 00000000 00000000 00000000  ................
 4002c8 00000000 00000000 92000000 12000000  ................
 4002d8 00000000 00000000 00000000 00000000  ................
 4002e8 36000000 12000000 00000000 00000000  6...............
 4002f8 00000000 00000000 29000000 12000000  ........).......
 400308 00000000 00000000 00000000 00000000  ................
 400318 67000000 12000000 00000000 00000000  g...............
 400328 00000000 00000000 60000000 12000000  ........`.......
 400338 00000000 00000000 00000000 00000000  ................
 400348 4c000000 12000000 00000000 00000000  L...............
 400358 00000000 00000000 3e000000 12000000  ........>.......
 400368 00000000 00000000 00000000 00000000  ................
 400378 80000000 12000000 00000000 00000000  ................
 400388 00000000 00000000 5a000000 12000000  ........Z.......
 400398 00000000 00000000 00000000 00000000  ................
 4003a8 0b000000 20000000 00000000 00000000  .... ...........
 4003b8 00000000 00000000 6e000000 12000000  ........n.......
 4003c8 00000000 00000000 00000000 00000000  ................
 4003d8 30000000 12000000 00000000 00000000  0...............
 4003e8 00000000 00000000 53000000 12000000  ........S.......
 4003f8 00000000 00000000 00000000 00000000  ................
 400408 75000000 12000000 00000000 00000000  u...............
 400418 00000000 00000000 7b000000 12000000  ........{.......
 400428 00000000 00000000 00000000 00000000  ................
 400438 1a000000 12000000 00000000 00000000  ................
 400448 00000000 00000000                    ........        
Contents of section .dynstr:
 400450 006c6962 6d2e736f 2e36005f 5f676d6f  .libm.so.6.__gmo
 400460 6e5f7374 6172745f 5f007371 7274006c  n_start__.sqrt.l
 400470 6962632e 736f2e36 00737472 63707900  ibc.so.6.strcpy.
 400480 666f7065 6e007075 74636861 72005f5f  fopen.putchar.__
 400490 61737365 72745f66 61696c00 7072696e  assert_fail.prin
 4004a0 74660073 7472746f 6b006667 65747300  tf.strtok.fgets.
 4004b0 7374726c 656e0066 636c6f73 65006d61  strlen.fclose.ma
 4004c0 6c6c6f63 00627a65 726f0061 746f6900  lloc.bzero.atoi.
 4004d0 5f5f6c69 62635f73 74617274 5f6d6169  __libc_start_mai
 4004e0 6e006672 65650047 4c494243 5f322e32  n.free.GLIBC_2.2
 4004f0 2e3500                               .5.             
Contents of section .gnu.version:
 4004f4 00000200 02000200 02000200 02000200  ................
 400504 02000200 00000200 02000200 02000200  ................
 400514 0300                                 ..              
Contents of section .gnu.version_r:
 400518 01000100 01000000 10000000 20000000  ............ ...
 400528 751a6909 00000300 97000000 00000000  u.i.............
 400538 01000100 1f000000 10000000 00000000  ................
 400548 751a6909 00000200 97000000 00000000  u.i.............
Contents of section .rela.dyn:
 400558 f81f6000 00000000 06000000 0a000000  ..`.............
 400568 00000000 00000000                    ........        
Contents of section .rela.plt:
 400570 18206000 00000000 07000000 01000000  . `.............
 400580 00000000 00000000 20206000 00000000  ........  `.....
 400590 07000000 02000000 00000000 00000000  ................
 4005a0 28206000 00000000 07000000 03000000  ( `.............
 4005b0 00000000 00000000 30206000 00000000  ........0 `.....
 4005c0 07000000 04000000 00000000 00000000  ................
 4005d0 38206000 00000000 07000000 05000000  8 `.............
 4005e0 00000000 00000000 40206000 00000000  ........@ `.....
 4005f0 07000000 06000000 00000000 00000000  ................
 400600 48206000 00000000 07000000 07000000  H `.............
 400610 00000000 00000000 50206000 00000000  ........P `.....
 400620 07000000 08000000 00000000 00000000  ................
 400630 58206000 00000000 07000000 09000000  X `.............
 400640 00000000 00000000 60206000 00000000  ........` `.....
 400650 07000000 0a000000 00000000 00000000  ................
 400660 68206000 00000000 07000000 0b000000  h `.............
 400670 00000000 00000000 70206000 00000000  ........p `.....
 400680 07000000 0c000000 00000000 00000000  ................
 400690 78206000 00000000 07000000 0d000000  x `.............
 4006a0 00000000 00000000 80206000 00000000  ......... `.....
 4006b0 07000000 0e000000 00000000 00000000  ................
 4006c0 88206000 00000000 07000000 0f000000  . `.............
 4006d0 00000000 00000000 90206000 00000000  ......... `.....
 4006e0 07000000 10000000 00000000 00000000  ................
Contents of section .init:
 4006f0 4883ec08 488b05fd 18200048 85c07405  H...H.... .H..t.
 400700 e8ab0000 004883c4 08c3               .....H....      
Contents of section .plt:
 400710 ff35f218 2000ff25 f4182000 0f1f4000  .5.. ..%.. ...@.
 400720 ff25f218 20006800 000000e9 e0ffffff  .%.. .h.........
 400730 ff25ea18 20006801 000000e9 d0ffffff  .%.. .h.........
 400740 ff25e218 20006802 000000e9 c0ffffff  .%.. .h.........
 400750 ff25da18 20006803 000000e9 b0ffffff  .%.. .h.........
 400760 ff25d218 20006804 000000e9 a0ffffff  .%.. .h.........
 400770 ff25ca18 20006805 000000e9 90ffffff  .%.. .h.........
 400780 ff25c218 20006806 000000e9 80ffffff  .%.. .h.........
 400790 ff25ba18 20006807 000000e9 70ffffff  .%.. .h.....p...
 4007a0 ff25b218 20006808 000000e9 60ffffff  .%.. .h.....`...
 4007b0 ff25aa18 20006809 000000e9 50ffffff  .%.. .h.....P...
 4007c0 ff25a218 2000680a 000000e9 40ffffff  .%.. .h.....@...
 4007d0 ff259a18 2000680b 000000e9 30ffffff  .%.. .h.....0...
 4007e0 ff259218 2000680c 000000e9 20ffffff  .%.. .h..... ...
 4007f0 ff258a18 2000680d 000000e9 10ffffff  .%.. .h.........
 400800 ff258218 2000680e 000000e9 00ffffff  .%.. .h.........
 400810 ff257a18 2000680f 000000e9 f0feffff  .%z. .h.........
Contents of section .text:
 400820 31ed4989 d15e4889 e24883e4 f0505449  1.I..^H..H...PTI
 400830 c7c06011 400048c7 c1f01040 0048c7c7  ..`.@.H....@.H..
 400840 730e4000 e847ffff fff4660f 1f440000  s.@..G....f..D..
 400850 b8a72060 0055482d a0206000 4883f80e  .. `.UH-. `.H...
 400860 4889e577 025dc3b8 00000000 4885c074  H..w.]......H..t
 400870 f45dbfa0 206000ff e00f1f80 00000000  .].. `..........
 400880 b8a02060 0055482d a0206000 48c1f803  .. `.UH-. `.H...
 400890 4889e548 89c248c1 ea3f4801 d048d1f8  H..H..H..?H..H..
 4008a0 75025dc3 ba000000 004885d2 74f45d48  u.]......H..t.]H
 4008b0 89c6bfa0 206000ff e20f1f80 00000000  .... `..........
 4008c0 803dd917 20000075 11554889 e5e87eff  .=.. ..u.UH...~.
 4008d0 ffff5dc6 05c61720 0001f3c3 0f1f4000  ..].... ......@.
 4008e0 48833d28 15200000 741eb800 00000048  H.=(. ..t......H
 4008f0 85c07414 55bf101e 60004889 e5ffd05d  ..t.U...`.H....]
 400900 e97bffff ff0f1f00 e973ffff ff554889  .{.......s...UH.
 400910 e54883ec 20897dec 8975e8b8 00000000  .H.. .}..u......
 400920 488945f8 c745f400 000000e9 c1000000  H.E..E..........
 400930 488b0d71 1720008b 45ec4863 d04889d0  H..q. ..E.Hc.H..
 400940 48c1e002 4801d048 c1e00448 8d14018b  H...H..H...H....
 400950 45f44898 8b4c8208 488b3549 1720008b  E.H..L..H.5I. ..
 400960 45e84863 d04889d0 48c1e002 4801d048  E.Hc.H..H...H..H
 400970 c1e00448 8d14068b 45f44898 8b448208  ...H....E.H..D..
 400980 89cf29c7 488b0d1d 1720008b 45ec4863  ..).H.... ..E.Hc
 400990 d04889d0 48c1e002 4801d048 c1e00448  .H..H...H..H...H
 4009a0 8d14018b 45f44898 8b4c8208 488b35f5  ....E.H..L..H.5.
 4009b0 1620008b 45e84863 d04889d0 48c1e002  . ..E.Hc.H..H...
 4009c0 4801d048 c1e00448 8d14068b 45f44898  H..H...H....E.H.
 4009d0 8b448208 29c189c8 0fafc7f2 0f2ac0f2  .D..)........*..
 4009e0 0f104df8 f20f58c1 f20f1145 f88345f4  ..M...X....E..E.
 4009f0 01837df4 0f0f8e35 ffffff48 8b45f848  ..}....5...H.E.H
 400a00 8945e0f2 0f1045e0 e803feff fff20f11  .E....E.........
 400a10 45e0488b 45e04889 45e0f20f 1045e0c9  E.H.E.H.E....E..
 400a20 c3554889 e54883ec 20897dec bfa00100  .UH..H.. .}.....
 400a30 00e88afd ffff4889 45f0488b 45f0bea0  ......H.E.H.E...
 400a40 01000048 89c7e8a5 fdffffc7 45fc0000  ...H........E...
 400a50 0000eb4c 8b45fc3b 45ec7502 eb3e8b55  ...L.E.;E.u..>.U
 400a60 fc8b45ec 89d689c7 e8a0feff fff20f10  ..E.............
 400a70 0d530700 00660f2e c8722148 8b45f08b  .S...f...r!H.E..
 400a80 55fc4863 d2c74490 04010000 00488b45  U.Hc..D......H.E
 400a90 f08b008d 5001488b 45f08910 8345fc01  ....P.H.E....E..
 400aa0 837dfc66 7eae488b 45f0c9c3 554889e5  .}.f~.H.E...UH..
 400ab0 4883ec10 48897df8 488b45f8 4889c7e8  H...H.}.H.E.H...
 400ac0 5cfcffff 90c9c355 4889e548 897de848  \......UH..H.}.H
 400ad0 8975e0c7 45fc0000 0000eb28 488b45e0  .u..E......(H.E.
 400ae0 8b55fc48 63d28b44 900485c0 7412488b  .U.Hc..D....t.H.
 400af0 45e88b55 fc4863d2 c7449004 01000000  E..U.Hc..D......
 400b00 8345fc01 837dfc66 7ed2905d c3554889  .E...}.f~..].UH.
 400b10 e54883ec 20897dec 488975e0 c745fc00  .H.. .}.H.u..E..
 400b20 000000e9 41010000 488b45e0 8b55fc48  ....A...H.E..U.H
 400b30 63d28b44 900485c0 0f842701 0000488b  c..D......'...H.
 400b40 45e08b55 fc4863d2 c7449004 00000000  E..U.Hc..D......
 400b50 488b0d51 1520008b 45fc4863 d04889d0  H..Q. ..E.Hc.H..
 400b60 48c1e002 4801d048 c1e00448 01c88b40  H...H..H...H...@
 400b70 4c83f808 7544488b 0d2b1520 008b45fc  L...uDH..+. ..E.
 400b80 4863d048 89d048c1 e0024801 d048c1e0  Hc.H..H...H..H..
 400b90 044801c1 488b350d 1520008b 45ec4863  .H..H.5.. ..E.Hc
 400ba0 d04889d0 48c1e002 4801d048 c1e00448  .H..H...H..H...H
 400bb0 01f08b40 4c89414c eb2a488b 0de71420  ...@L.AL.*H.... 
 400bc0 008b45fc 4863d048 89d048c1 e0024801  ..E.Hc.H..H...H.
 400bd0 d048c1e0 044801c8 8b404c85 c07405e9  .H...H...@L..t..
 400be0 81000000 488b0dbd 1420008b 45fc4863  ....H.... ..E.Hc
 400bf0 d04889d0 48c1e002 4801d048 c1e00448  .H..H...H..H...H
 400c00 01c1488b 359f1420 008b45ec 4863d048  ..H.5.. ..E.Hc.H
 400c10 89d048c1 e0024801 d048c1e0 044801f0  ..H...H..H...H..
 400c20 8b404c89 414c8b45 fc89c7e8 f1fdffff  .@L.AL.E........
 400c30 488945f0 488b45f0 8b0083f8 037e1a48  H.E.H.E......~.H
 400c40 8b55f048 8b45e048 89d64889 c7e875fe  .U.H.E.H..H...u.
 400c50 ffffc745 fc000000 00488b45 f04889c7  ...E.....H.E.H..
 400c60 e847feff ff8345fc 01837dfc 660f8eb5  .G....E...}.f...
 400c70 feffff90 c9c35548 89e54883 ec10c745  ......UH..H....E
 400c80 fc000000 00c745f8 00000000 e9c00000  ......E.........
 400c90 00488b0d 10142000 8b45f848 63d04889  .H.... ..E.Hc.H.
 400ca0 d048c1e0 024801d0 48c1e004 4801c88b  .H...H..H...H...
 400cb0 404c85c0 7405e992 0000008b 45f889c7  @L..t.......E...
 400cc0 e85cfdff ff488945 f0488b45 f08b0083  .\...H.E.H.E....
 400cd0 f8037f33 488b0dcd 1320008b 45f84863  ...3H.... ..E.Hc
 400ce0 d04889d0 48c1e002 4801d048 c1e00448  .H..H...H..H...H
 400cf0 01c8c740 4c080000 00488b45 f04889c7  ...@L....H.E.H..
 400d00 e8a7fdff ffeb4648 8b0d9a13 20008b45  ......FH.... ..E
 400d10 f84863d0 4889d048 c1e00248 01d048c1  .Hc.H..H...H..H.
 400d20 e004488d 14018345 fc018b45 fc89424c  ..H....E...E..BL
 400d30 488b55f0 8b45f848 89d689c7 e8ccfdff  H.U..E.H........
 400d40 ff488b45 f04889c7 e85ffdff ff8345f8  .H.E.H..._....E.
 400d50 01837df8 660f8e36 ffffff8b 45fcc9c3  ..}.f..6....E...
 400d60 554889e5 4883ec10 c745fc00 000000e9  UH..H....E......
 400d70 f3000000 488b0d2d 1320008b 45fc4863  ....H..-. ..E.Hc
 400d80 d04889d0 48c1e002 4801d048 c1e00448  .H..H...H..H...H
 400d90 01c8488b 108b45fc 89c6bf80 114000b8  ..H...E......@..
 400da0 00000000 e8c7f9ff ffc745f8 00000000  ..........E.....
 400db0 eb3d488b 0def1220 008b45fc 4863d048  .=H.... ..E.Hc.H
 400dc0 89d048c1 e0024801 d048c1e0 04488d14  ..H...H..H...H..
 400dd0 018b45f8 48988b44 820889c6 bf891140  ..E.H..D.......@
 400de0 00b80000 0000e885 f9ffff83 45f80183  ............E...
 400df0 7df80f7e bd488b0d ac122000 8b45fc48  }..~.H.... ..E.H
 400e00 63d04889 d048c1e0 024801d0 48c1e004  c.H..H...H..H...
 400e10 4801c88b 404889c6 bf891140 00b80000  H...@H.....@....
 400e20 0000e849 f9ffff48 8b0d7a12 20008b45  ...I...H..z. ..E
 400e30 fc4863d0 4889d048 c1e00248 01d048c1  .Hc.H..H...H..H.
 400e40 e0044801 c88b404c 89c6bf8e 114000b8  ..H...@L.....@..
 400e50 00000000 e817f9ff ffbf0a00 0000e8cd  ................
 400e60 f8ffff83 45fc0183 7dfc660f 8e03ffff  ....E...}.f.....
 400e70 ffc9c355 4889e541 54534881 ec502700  ...UH..ATSH..P'.
 400e80 0066c785 a0d8ffff 2c00bf30 200000e8  .f......,..0 ...
 400e90 2cf9ffff 4889050d 122000be 91114000  ,...H.... ....@.
 400ea0 bf931140 00e826f9 ffff4889 45d0c745  ...@..&...H.E..E
 400eb0 e4000000 00c745e0 00000000 488b55d0  ......E.....H.U.
 400ec0 488d85b0 d8ffffbe 10270000 4889c7e8  H........'..H...
 400ed0 ccf8ffff 4885c075 1990488b 45d04889  ....H..u..H.E.H.
 400ee0 c7e86af8 ffffc745 dc000000 00e9d401  ..j....E........
 400ef0 0000488d 85b0d8ff ff488945 c8488d95  ..H......H.E.H..
 400f00 a0d8ffff 488b45c8 4889d648 89c7e8cd  ....H.E.H..H....
 400f10 f8ffff48 8945e8e9 62010000 837de400  ...H.E..b....}..
 400f20 756b488b 0d7f1120 008b45e0 4863d048  ukH.... ..E.Hc.H
 400f30 89d048c1 e0024801 d048c1e0 04488d1c  ..H...H..H...H..
 400f40 01488b45 e84889c7 e813f8ff ff4889c7  .H.E.H.......H..
 400f50 e86bf8ff ff488903 488b0d49 1120008b  .k...H..H..I. ..
 400f60 45e04863 d04889d0 48c1e002 4801d048  E.Hc.H..H...H..H
 400f70 c1e00448 01c8488b 00488b55 e84889d6  ...H..H..H.U.H..
 400f80 4889c7e8 b8f7ffff e9d50000 00837de4  H.............}.
 400f90 007e4483 7de4107f 3e488b0d 08112000  .~D.}...>H.... .
 400fa0 8b45e048 63d04889 d048c1e0 024801d0  .E.Hc.H..H...H..
 400fb0 48c1e004 488d1c01 8b45e444 8d60ff48  H...H....E.D.`.H
 400fc0 8b45e848 89c7e835 f8ffff49 63d48944  .E.H...5...Ic..D
 400fd0 9308e98b 00000083 7de41175 30488b0d  ........}..u0H..
 400fe0 c4102000 8b45e048 63d04889 d048c1e0  .. ..E.Hc.H..H..
 400ff0 024801d0 48c1e004 488d1c01 488b45e8  .H..H...H...H.E.
 401000 4889c7e8 f8f7ffff 894348eb 55837de4  H........CH.U.}.
 401010 12753048 8b0d8e10 20008b45 e04863d0  .u0H.... ..E.Hc.
 401020 4889d048 c1e00248 01d048c1 e004488d  H..H...H..H...H.
 401030 1c01488b 45e84889 c7e8c2f7 ffff8943  ..H.E.H........C
 401040 4ceb1f83 7de4127e 19b9c311 4000baef  L...}..~....@...
 401050 000000be a1114000 bfaa1140 00e81ef7  ......@....@....
 401060 ffff488d 85a0d8ff ff4889c6 bf000000  ..H......H......
 401070 00e86af7 ffff4889 45e88345 e4014883  ..j...H.E..E..H.
 401080 7de8000f 8593feff ff8345e0 01c745e4  }.........E...E.
 401090 00000000 e923feff ff488b0d 08102000  .....#...H.... .
 4010a0 8b45dc48 63d04889 d048c1e0 024801d0  .E.Hc.H..H...H..
 4010b0 48c1e004 4801c848 8b004889 c7e85ef6  H...H..H..H...^.
 4010c0 ffff8345 dc01837d dc667ecd 488b05d5  ...E...}.f~.H...
 4010d0 0f200048 89c7e845 f6ffffb8 00000000  . .H...E........
 4010e0 4881c450 2700005b 415c5dc3 0f1f4000  H..P'..[A\]...@.
 4010f0 41574189 ff415649 89f64155 4989d541  AWA..AVI..AUI..A
 401100 544c8d25 f80c2000 55488d2d f80c2000  TL.%.. .UH.-.. .
 401110 534c29e5 31db48c1 fd034883 ec08e8cd  SL).1.H...H.....
 401120 f5ffff48 85ed741e 0f1f8400 00000000  ...H..t.........
 401130 4c89ea4c 89f64489 ff41ff14 dc4883c3  L..L..D..A...H..
 401140 014839eb 75ea4883 c4085b5d 415c415d  .H9.u.H...[]A\A]
 401150 415e415f c390662e 0f1f8400 00000000  A^A_..f.........
 401160 f3c3                                 ..              
Contents of section .fini:
 401164 4883ec08 4883c408 c3                 H...H....       
Contents of section .rodata:
 401170 01000200 00000000 00000000 00000000  ................
 401180 25642c20 25732c20 0025642c 20002564  %d, %s, .%d, .%d
 401190 0072002e 2f646174 61736574 2e637376  .r../dataset.csv
 4011a0 00646273 63616e2e 63007374 72756374  .dbscan.c.struct
 4011b0 5f636f75 6e746572 203c3d20 3136202b  _counter <= 16 +
 4011c0 2032006d 61696e00 33333333 3333fb3f   2.main.333333.?
Contents of section .eh_frame_hdr:
 4011d0 011b033b 6c000000 0c000000 40f5ffff  ...;l.......@...
 4011e0 b8000000 50f6ffff 88000000 3df7ffff  ....P.......=...
 4011f0 e0000000 51f8ffff 00010000 dcf8ffff  ....Q...........
 401200 20010000 f7f8ffff 40010000 3df9ffff   .......@...=...
 401210 60010000 a6faffff 80010000 90fbffff  `...............
 401220 a0010000 a3fcffff c0010000 20ffffff  ............ ...
 401230 e8010000 90ffffff 30020000           ........0...    
Contents of section .eh_frame:
 401240 14000000 00000000 017a5200 01781001  .........zR..x..
 401250 1b0c0708 90010710 14000000 1c000000  ................
 401260 c0f5ffff 2a000000 00000000 00000000  ....*...........
 401270 14000000 00000000 017a5200 01781001  .........zR..x..
 401280 1b0c0708 90010000 24000000 1c000000  ........$.......
 401290 80f4ffff 10010000 000e1046 0e184a0f  ...........F..J.
 4012a0 0b770880 003f1a3b 2a332422 00000000  .w...?.;*3$"....
 4012b0 1c000000 44000000 55f6ffff 14010000  ....D...U.......
 4012c0 00410e10 8602430d 06030f01 0c070800  .A....C.........
 4012d0 1c000000 64000000 49f7ffff 8b000000  ....d...I.......
 4012e0 00410e10 8602430d 0602860c 07080000  .A....C.........
 4012f0 1c000000 84000000 b4f7ffff 1b000000  ................
 401300 00410e10 8602430d 06560c07 08000000  .A....C..V......
 401310 1c000000 a4000000 aff7ffff 46000000  ............F...
 401320 00410e10 8602430d 0602410c 07080000  .A....C...A.....
 401330 1c000000 c4000000 d5f7ffff 69010000  ............i...
 401340 00410e10 8602430d 06036401 0c070800  .A....C...d.....
 401350 1c000000 e4000000 1ef9ffff ea000000  ................
 401360 00410e10 8602430d 0602e50c 07080000  .A....C.........
 401370 1c000000 04010000 e8f9ffff 13010000  ................
 401380 00410e10 8602430d 06030e01 0c070800  .A....C.........
 401390 24000000 24010000 dbfaffff 79020000  $...$.......y...
 4013a0 00410e10 8602430d 064a8c03 8304036a  .A....C..J.....j
 4013b0 020c0708 00000000 44000000 4c010000  ........D...L...
 4013c0 30fdffff 65000000 00420e10 8f02450e  0...e....B....E.
 4013d0 188e0345 0e208d04 450e288c 05480e30  ...E. ..E.(..H.0
 4013e0 8606480e 3883074d 0e406c0e 38410e30  ..H.8..M.@l.8A.0
 4013f0 410e2842 0e20420e 18420e10 420e0800  A.(B. B..B..B...
 401400 14000000 94010000 58fdffff 02000000  ........X.......
 401410 00000000 00000000 00000000           ............    
Contents of section .init_array:
 601e00 e0084000 00000000                    ..@.....        
Contents of section .fini_array:
 601e08 c0084000 00000000                    ..@.....        
Contents of section .jcr:
 601e10 00000000 00000000                    ........        
Contents of section .dynamic:
 601e18 01000000 00000000 01000000 00000000  ................
 601e28 01000000 00000000 1f000000 00000000  ................
 601e38 0c000000 00000000 f0064000 00000000  ..........@.....
 601e48 0d000000 00000000 64114000 00000000  ........d.@.....
 601e58 19000000 00000000 001e6000 00000000  ..........`.....
 601e68 1b000000 00000000 08000000 00000000  ................
 601e78 1a000000 00000000 081e6000 00000000  ..........`.....
 601e88 1c000000 00000000 08000000 00000000  ................
 601e98 f5feff6f 00000000 98024000 00000000  ...o......@.....
 601ea8 05000000 00000000 50044000 00000000  ........P.@.....
 601eb8 06000000 00000000 b8024000 00000000  ..........@.....
 601ec8 0a000000 00000000 a3000000 00000000  ................
 601ed8 0b000000 00000000 18000000 00000000  ................
 601ee8 15000000 00000000 00000000 00000000  ................
 601ef8 03000000 00000000 00206000 00000000  ......... `.....
 601f08 02000000 00000000 80010000 00000000  ................
 601f18 14000000 00000000 07000000 00000000  ................
 601f28 17000000 00000000 70054000 00000000  ........p.@.....
 601f38 07000000 00000000 58054000 00000000  ........X.@.....
 601f48 08000000 00000000 18000000 00000000  ................
 601f58 09000000 00000000 18000000 00000000  ................
 601f68 feffff6f 00000000 18054000 00000000  ...o......@.....
 601f78 ffffff6f 00000000 02000000 00000000  ...o............
 601f88 f0ffff6f 00000000 f4044000 00000000  ...o......@.....
 601f98 00000000 00000000 00000000 00000000  ................
 601fa8 00000000 00000000 00000000 00000000  ................
 601fb8 00000000 00000000 00000000 00000000  ................
 601fc8 00000000 00000000 00000000 00000000  ................
 601fd8 00000000 00000000 00000000 00000000  ................
 601fe8 00000000 00000000 00000000 00000000  ................
Contents of section .got:
 601ff8 00000000 00000000                    ........        
Contents of section .got.plt:
 602000 181e6000 00000000 00000000 00000000  ..`.............
 602010 00000000 00000000 26074000 00000000  ........&.@.....
 602020 36074000 00000000 46074000 00000000  6.@.....F.@.....
 602030 56074000 00000000 66074000 00000000  V.@.....f.@.....
 602040 76074000 00000000 86074000 00000000  v.@.......@.....
 602050 96074000 00000000 a6074000 00000000  ..@.......@.....
 602060 b6074000 00000000 c6074000 00000000  ..@.......@.....
 602070 d6074000 00000000 e6074000 00000000  ..@.......@.....
 602080 f6074000 00000000 06084000 00000000  ..@.......@.....
 602090 16084000 00000000                    ..@.....        
Contents of section .data:
 602098 00000000                             ....            
Contents of section .comment:
 0000 4743433a 2028474e 55292034 2e382e35  GCC: (GNU) 4.8.5
 0010 20323031 35303632 33202852 65642048   20150623 (Red H
 0020 61742034 2e382e35 2d343429 00        at 4.8.5-44).   
Contents of section .debug_aranges:
 0000 2c000000 02000000 00000800 00000000  ,...............
 0010 0d094000 00000000 df070000 00000000  ..@.............
 0020 00000000 00000000 00000000 00000000  ................
Contents of section .debug_info:
 0000 ce060000 04000000 00000801 a6000000  ................
 0010 019d0200 00590100 000d0940 00000000  .....Y.....@....
 0020 00df0700 00000000 00000000 00023600  ..............6.
 0030 000002d4 38000000 030807a6 02000003  ....8...........
 0040 0108ba01 00000302 072c0200 00030407  .........,......
 0050 ab020000 030106bc 01000003 02052c00  ..............,.
 0060 00000404 05696e74 00030805 16010000  .....int........
 0070 02d00200 00038c69 00000002 c6020000  .......i........
 0080 038d6900 00000308 07430000 00050806  ..i......C......
 0090 08950000 00030106 c3010000 02b50100  ................
 00a0 000430a7 00000007 b1010000 d805f628  ..0............(
 00b0 02000008 76000000 05f76200 00000008  ....v.....b.....
 00c0 1f020000 05fc8f00 00000808 93000000  ................
 00d0 05fd8f00 00001008 3b030000 05fe8f00  ........;.......
 00e0 00001808 07020000 05ff8f00 00002009  .............. .
 00f0 68000000 0500018f 00000028 09b80200  h..........(....
 0100 00050101 8f000000 30097d00 00000502  ........0.}.....
 0110 018f0000 00380900 00000005 03018f00  .....8..........
 0120 00004009 61030000 0505018f 00000048  ..@.a..........H
 0130 09ed0200 00050601 8f000000 50091f00  ............P...
 0140 00000507 018f0000 0058098a 00000005  .........X......
 0150 09016002 00006009 d8020000 050b0166  ..`...`........f
 0160 02000068 096f0300 00050d01 62000000  ...h.o......b...
 0170 70092d03 00000511 01620000 0074090c  p.-......b...t..
 0180 00000005 13017000 00007809 34010000  ......p...x.4...
 0190 05170146 00000080 09520300 00051801  ...F.....R......
 01a0 54000000 8209ee01 00000519 016c0200  T............l..
 01b0 0083092e 01000005 1d017c02 00008809  ..........|.....
 01c0 10000000 0526017b 00000090 09690200  .....&.{.....i..
 01d0 00052f01 8d000000 98097002 00000530  ../.......p....0
 01e0 018d0000 00a00977 02000005 31018d00  .......w....1...
 01f0 0000a809 7e020000 0532018d 000000b0  ....~....2......
 0200 09850200 00053301 2d000000 b8093503  ......3.-.....5.
 0210 00000535 01620000 00c00916 02000005  ...5.b..........
 0220 37018202 0000c400 0a890300 00059b07  7...............
 0230 e3010000 1805a160 02000008 63020000  .......`....c...
 0240 05a26002 00000008 ab010000 05a36602  ..`...........f.
 0250 00000808 54010000 05a76200 00001000  ....T.....b.....
 0260 06082f02 00000608 a7000000 0b950000  ../.............
 0270 007c0200 000c8600 00000000 06082802  .|............(.
 0280 00000b95 00000092 0200000c 86000000  ................
 0290 13000308 05110100 00030404 0b010000  ................
 02a0 03080418 00000007 8c020000 500115e4  ............P...
 02b0 02000008 9d010000 01168f00 00000008  ................
 02c0 a2010000 0117e402 00000808 a0000000  ................
 02d0 01186200 00004808 3d000000 01196200  ..b...H.=.....b.
 02e0 00004c00 0b620000 00f40200 000c8600  ..L..b..........
 02f0 00000f00 028c0200 00011aa7 0200000d  ................
 0300 c8010000 a001011c 25030000 08f80100  ........%.......
 0310 00011d62 00000000 08490300 00011e25  ...b.....I.....%
 0320 03000004 000b6200 00003503 00000c86  ......b...5.....
 0330 00000066 0002c801 0000011f ff020000  ...f............
 0340 0e3f0200 000145a0 0200000d 09400000  .?....E......@..
 0350 00000014 01000000 00000001 9ca80300  ................
 0360 000f6900 01456200 00000291 5c0f6a00  ..i..Eb.....\.j.
 0370 01456200 00000291 58107375 6d000147  .Eb.....X.sum..G
 0380 a0020000 02916811 24094000 00000000  ......h.$.@.....
 0390 d7000000 00000000 12db0100 00014962  ..............Ib
 03a0 00000002 91640000 0e1f0100 00015204  .....d........R.
 03b0 04000021 0a400000 0000008b 00000000  ...!.@..........
 03c0 00000001 9c040400 00135702 00000152  ..........W....R
 03d0 62000000 02915c12 49030000 01540404  b.....\.I....T..
 03e0 00000291 60114b0a 40000000 00005b00  ....`.K.@.....[.
 03f0 00000000 00001069 00015862 00000002  .......i..Xb....
 0400 916c0000 06083503 0000141e 03000001  .l....5.........
 0410 67ac0a40 00000000 001b0000 00000000  g..@............
 0420 00019c36 04000013 4d020000 01670404  ...6....M....g..
 0430 00000291 68001548 02000001 6ec70a40  ....h..H....n..@
 0440 00000000 00460000 00000000 00019c8e  .....F..........
 0450 04000013 5a000000 016e0404 00000291  ....Z....n......
 0460 58134d02 0000016e 04040000 02915011  X.M....n......P.
 0470 d30a4000 00000000 37000000 00000000  ..@.....7.......
 0480 10690001 70620000 0002916c 00001477  .i..pb.....l...w
 0490 03000001 7c0d0b40 00000000 00690100  ....|..@.....i..
 04a0 00000000 00019c06 05000013 4c000000  ............L...
 04b0 017c6200 00000291 5c135a00 0000017c  .|b.....\.Z....|
 04c0 04040000 02915011 1c0b4000 00000000  ......P...@.....
 04d0 57010000 00000000 10690001 7f620000  W........i...b..
 04e0 0002916c 113e0b40 00000000 00270100  ...l.>.@.....'..
 04f0 00000000 00124d02 00000191 04040000  ......M.........
 0500 02916000 00000ed4 01000001 a0620000  ..`..........b..
 0510 00760c40 00000000 00ea0000 00000000  .v.@............
 0520 00019c74 05000012 df020000 01a26200  ...t..........b.
 0530 00000291 6c11850c 40000000 0000d600  ....l...@.......
 0540 00000000 00001069 0001a462 00000002  .......i...b....
 0550 91681191 0c400000 000000bc 00000000  .h...@..........
 0560 00000012 4d020000 01a80404 00000291  ....M...........
 0570 60000000 16fd0000 0001bc60 0d400000  `..........`.@..
 0580 00000013 01000000 00000001 9cce0500  ................
 0590 0011680d 40000000 00000901 00000000  ..h.@...........
 05a0 00001069 0001bd62 00000002 916c11a9  ...i...b.....l..
 05b0 0d400000 0000004c 00000000 00000010  .@.....L........
 05c0 6a0001c0 62000000 02916800 00000e63  j...b.....h....c
 05d0 00000001 cb620000 00730e40 00000000  .....b...s.@....
 05e0 00790200 00000000 00019c7a 06000010  .y.........z....
 05f0 66700001 cd7a0600 00029140 12960200  fp...z.....@....
 0600 0001ce80 06000004 91a0b17f 12e70200  ................
 0610 0001cf8f 00000003 91b87f10 63680001  ............ch..
 0620 d08f0000 00029158 12f70000 0001d191  .......X........
 0630 06000004 9190b17f 12fd0200 0001d762  ...............b
 0640 00000002 9154120c 03000001 d8620000  .....T.......b..
 0650 00029150 17400100 00b10600 000903c3  ...P.@..........
 0660 11400000 00000018 00000000 10690001  .@...........i..
 0670 fd620000 0002914c 00000608 9c000000  .b.....L........
 0680 0b950000 00910600 00198600 00000f27  ...............'
 0690 000b9500 0000a106 00000c86 00000001  ................
 06a0 000b9500 0000b106 00000c86 00000004  ................
 06b0 001aa106 00001b03 01000001 43cb0600  ............C...
 06c0 000903a8 20600000 00000006 08f40200  .... `..........
 06d0 0000                                 ..              
Contents of section .debug_abbrev:
 0000 01110125 0e130b03 0e1b0e11 01120710  ...%............
 0010 17000002 1600030e 3a0b3b0b 49130000  ........:.;.I...
 0020 0324000b 0b3e0b03 0e000004 24000b0b  .$...>......$...
 0030 3e0b0308 0000050f 000b0b00 00060f00  >...............
 0040 0b0b4913 00000713 01030e0b 0b3a0b3b  ..I..........:.;
 0050 0b011300 00080d00 030e3a0b 3b0b4913  ..........:.;.I.
 0060 380b0000 090d0003 0e3a0b3b 05491338  8........:.;.I.8
 0070 0b00000a 1600030e 3a0b3b0b 00000b01  ........:.;.....
 0080 01491301 1300000c 21004913 2f0b0000  .I......!.I./...
 0090 0d130103 0e0b053a 0b3b0b01 1300000e  .......:.;......
 00a0 2e013f19 030e3a0b 3b0b2719 49131101  ..?...:.;.'.I...
 00b0 12074018 96421901 1300000f 05000308  ..@..B..........
 00c0 3a0b3b0b 49130218 00001034 0003083a  :.;.I......4...:
 00d0 0b3b0b49 13021800 00110b01 11011207  .;.I............
 00e0 00001234 00030e3a 0b3b0b49 13021800  ...4...:.;.I....
 00f0 00130500 030e3a0b 3b0b4913 02180000  ......:.;.I.....
 0100 142e013f 19030e3a 0b3b0b27 19110112  ...?...:.;.'....
 0110 07401896 42190113 0000152e 013f1903  .@..B........?..
 0120 0e3a0b3b 0b271911 01120740 18974219  .:.;.'.....@..B.
 0130 01130000 162e013f 19030e3a 0b3b0b11  .......?...:.;..
 0140 01120740 18964219 01130000 17340003  ...@..B......4..
 0150 0e491334 19021800 00180b01 55170000  .I.4........U...
 0160 19210049 132f0500 001a2600 49130000  .!.I./....&.I...
 0170 1b340003 0e3a0b3b 0b49133f 19021800  .4...:.;.I.?....
 0180 0000                                 ..              
Contents of section .debug_line:
 0000 ea010000 02009a00 00000101 fb0e0d00  ................
 0010 01010101 00000001 0000012f 7573722f  .........../usr/
 0020 6c69622f 6763632f 7838365f 36342d72  lib/gcc/x86_64-r
 0030 65646861 742d6c69 6e75782f 342e382e  edhat-linux/4.8.
 0040 352f696e 636c7564 65002f75 73722f69  5/include./usr/i
 0050 6e636c75 64652f62 69747300 2f757372  nclude/bits./usr
 0060 2f696e63 6c756465 00006462 7363616e  /include..dbscan
 0070 2e630000 00007374 64646566 2e680001  .c....stddef.h..
 0080 00007479 7065732e 68000200 00737464  ..types.h....std
 0090 696f2e68 00030000 6c696269 6f2e6800  io.h....libio.h.
 00a0 03000000 0009020d 09400000 00000003  .........@......
 00b0 c50001d7 92000204 02bc0002 040202bd  ................
 00c0 01100002 0401064a 06a3089f b0add808  .......J........
 00d0 14920002 04010682 063008bc 08210379  .........0...!.y
 00e0 e4000204 01064a06 030b664b 32bbbc21  ......J...fK2..!
 00f0 31bb9208 22081c00 02040106 4a066e21  1...".......J.n!
 0100 32e6bd08 5a082202 26140244 14022514  2...Z.".&..D..%.
 0110 5b024214 d8ae082f 760367ba 00020401  [.B..../v.g.....
 0120 064a0603 1d9e2132 8376bc00 02040106  .J....!2.v......
 0130 02251206 5ad8ae02 2513bb32 02291408  .%..Z...%..2.)..
 0140 14036eba 00020401 064a0603 159e3d30  ..n......J....=0
 0150 83bb0235 14000204 02910002 04020239  ...5...........9
 0160 11000204 01064a06 6a023213 02321303  ......J.j.2..2..
 0170 779e0002 0401064a 06030c9e 31db9208  w......J....1...
 0180 14083075 77000204 010608ba 00020401  ..0uw...........
 0190 06031f20 00020401 bd035fba ae089259  ... ......_....Y
 01a0 67023613 02351400 02040106 66066702  g.6..5......f.g.
 01b0 3e146702 30146702 30150002 04010666  >.g.0.g.0......f
 01c0 06088508 75000204 01036d4a 0316ac4b  ....u.....mJ...K
 01d0 75000204 025e0002 04020229 11000204  u....^.....)....
 01e0 01064a06 6ae50320 58020c00 0101      ..J.j.. X.....  
Contents of section .debug_str:
 0000 5f494f5f 6275665f 656e6400 5f6f6c64  _IO_buf_end._old
 0010 5f6f6666 73657400 646f7562 6c65005f  _offset.double._
 0020 494f5f73 6176655f 656e6400 73686f72  IO_save_end.shor
 0030 7420696e 74007369 7a655f74 006c6162  t int.size_t.lab
 0040 656c0073 697a6574 79706500 696e6974  el.sizetype.init
 0050 69616c5f 706f696e 74007365 65645f73  ial_point.seed_s
 0060 6574006d 61696e00 5f494f5f 77726974  et.main._IO_writ
 0070 655f7074 72005f66 6c616773 005f494f  e_ptr._flags._IO
 0080 5f627566 5f626173 65005f6d 61726b65  _buf_base._marke
 0090 7273005f 494f5f72 6561645f 656e6400  rs._IO_read_end.
 00a0 636c6173 7300474e 55204320 342e382e  class.GNU C 4.8.
 00b0 35203230 31353036 32332028 52656420  5 20150623 (Red 
 00c0 48617420 342e382e 352d3434 29202d6d  Hat 4.8.5-44) -m
 00d0 74756e65 3d67656e 65726963 202d6d61  tune=generic -ma
 00e0 7263683d 7838362d 3634202d 67202d73  rch=x86-64 -g -s
 00f0 74643d63 39390064 656c696d 00707269  td=c99.delim.pri
 0100 6e745f64 61746173 65740066 6c6f6174  nt_dataset.float
 0110 006c6f6e 67206c6f 6e672069 6e740066  .long long int.f
 0120 696e645f 6e656967 68626f72 73005f6c  ind_neighbors._l
 0130 6f636b00 5f637572 5f636f6c 756d6e00  ock._cur_column.
 0140 5f5f5052 45545459 5f46554e 4354494f  __PRETTY_FUNCTIO
 0150 4e5f5f00 5f706f73 002f6166 732f616e  N__._pos./afs/an
 0160 64726577 2e636d75 2e656475 2f757372  drew.cmu.edu/usr
 0170 32302f61 73687769 6e76652f 446f6375  20/ashwinve/Docu
 0180 6d656e74 732f4769 74487562 2f646273  ments/GitHub/dbs
 0190 63616e5f 66617374 636f6465 006e616d  can_fastcode.nam
 01a0 65006665 61747572 6573005f 73627566  e.features._sbuf
 01b0 005f494f 5f46494c 4500756e 7369676e  ._IO_FILE.unsign
 01c0 65642063 68617200 6e656967 68626f72  ed char.neighbor
 01d0 735f7400 64627363 616e0066 65617475  s_t.dbscan.featu
 01e0 7265005f 494f5f6d 61726b65 72005f73  re._IO_marker._s
 01f0 686f7274 62756600 6e656967 68626f72  hortbuf.neighbor
 0200 5f636f75 6e74005f 494f5f77 72697465  _count._IO_write
 0210 5f626173 65005f75 6e757365 6432005f  _base._unused2._
 0220 494f5f72 6561645f 70747200 73686f72  IO_read_ptr.shor
 0230 7420756e 7369676e 65642069 6e740064  t unsigned int.d
 0240 69737461 6e636500 666f6c64 5f6e6569  istance.fold_nei
 0250 6768626f 7273006f 62736572 76617469  ghbors.observati
 0260 6f6e005f 6e657874 005f5f70 61643100  on._next.__pad1.
 0270 5f5f7061 6432005f 5f706164 33005f5f  __pad2.__pad3.__
 0280 70616434 005f5f70 61643500 64617461  pad4.__pad5.data
 0290 7365745f 74006275 66666572 00646273  set_t.buffer.dbs
 02a0 63616e2e 63006c6f 6e672075 6e736967  can.c.long unsig
 02b0 6e656420 696e7400 5f494f5f 77726974  ned int._IO_writ
 02c0 655f656e 64005f5f 6f666636 345f7400  e_end.__off64_t.
 02d0 5f5f6f66 665f7400 5f636861 696e0063  __off_t._chain.c
 02e0 6c757374 65720070 62756666 005f494f  luster.pbuff._IO
 02f0 5f626163 6b75705f 62617365 00737472  _backup_base.str
 0300 7563745f 636f756e 74657200 6f627365  uct_counter.obse
 0310 72766174 696f6e5f 636f756e 74006672  rvation_count.fr
 0320 65655f6e 65696768 626f7273 005f666c  ee_neighbors._fl
 0330 61677332 005f6d6f 6465005f 494f5f72  ags2._mode._IO_r
 0340 6561645f 62617365 006e6569 6768626f  ead_base.neighbo
 0350 72005f76 7461626c 655f6f66 66736574  r._vtable_offset
 0360 005f494f 5f736176 655f6261 7365005f  ._IO_save_base._
 0370 66696c65 6e6f0070 726f6365 73735f6e  fileno.process_n
 0380 65696768 626f7273 005f494f 5f6c6f63  eighbors._IO_loc
 0390 6b5f7400                             k_t.            
Contents of section .debug_ranges:
 0000 d9050000 00000000 e5050000 00000000  ................
 0010 8c070000 00000000 bf070000 00000000  ................
 0020 00000000 00000000 00000000 00000000  ................

Disassembly of section .init:

00000000004006f0 <_init>:
  4006f0:	48 83 ec 08          	sub    $0x8,%rsp
  4006f4:	48 8b 05 fd 18 20 00 	mov    0x2018fd(%rip),%rax        # 601ff8 <__gmon_start__>
  4006fb:	48 85 c0             	test   %rax,%rax
  4006fe:	74 05                	je     400705 <_init+0x15>
  400700:	e8 ab 00 00 00       	callq  4007b0 <__gmon_start__@plt>
  400705:	48 83 c4 08          	add    $0x8,%rsp
  400709:	c3                   	retq   

Disassembly of section .plt:

0000000000400710 <.plt>:
  400710:	ff 35 f2 18 20 00    	pushq  0x2018f2(%rip)        # 602008 <_GLOBAL_OFFSET_TABLE_+0x8>
  400716:	ff 25 f4 18 20 00    	jmpq   *0x2018f4(%rip)        # 602010 <_GLOBAL_OFFSET_TABLE_+0x10>
  40071c:	0f 1f 40 00          	nopl   0x0(%rax)

0000000000400720 <free@plt>:
  400720:	ff 25 f2 18 20 00    	jmpq   *0x2018f2(%rip)        # 602018 <free@GLIBC_2.2.5>
  400726:	68 00 00 00 00       	pushq  $0x0
  40072b:	e9 e0 ff ff ff       	jmpq   400710 <.plt>

0000000000400730 <putchar@plt>:
  400730:	ff 25 ea 18 20 00    	jmpq   *0x2018ea(%rip)        # 602020 <putchar@GLIBC_2.2.5>
  400736:	68 01 00 00 00       	pushq  $0x1
  40073b:	e9 d0 ff ff ff       	jmpq   400710 <.plt>

0000000000400740 <strcpy@plt>:
  400740:	ff 25 e2 18 20 00    	jmpq   *0x2018e2(%rip)        # 602028 <strcpy@GLIBC_2.2.5>
  400746:	68 02 00 00 00       	pushq  $0x2
  40074b:	e9 c0 ff ff ff       	jmpq   400710 <.plt>

0000000000400750 <fclose@plt>:
  400750:	ff 25 da 18 20 00    	jmpq   *0x2018da(%rip)        # 602030 <fclose@GLIBC_2.2.5>
  400756:	68 03 00 00 00       	pushq  $0x3
  40075b:	e9 b0 ff ff ff       	jmpq   400710 <.plt>

0000000000400760 <strlen@plt>:
  400760:	ff 25 d2 18 20 00    	jmpq   *0x2018d2(%rip)        # 602038 <strlen@GLIBC_2.2.5>
  400766:	68 04 00 00 00       	pushq  $0x4
  40076b:	e9 a0 ff ff ff       	jmpq   400710 <.plt>

0000000000400770 <printf@plt>:
  400770:	ff 25 ca 18 20 00    	jmpq   *0x2018ca(%rip)        # 602040 <printf@GLIBC_2.2.5>
  400776:	68 05 00 00 00       	pushq  $0x5
  40077b:	e9 90 ff ff ff       	jmpq   400710 <.plt>

0000000000400780 <__assert_fail@plt>:
  400780:	ff 25 c2 18 20 00    	jmpq   *0x2018c2(%rip)        # 602048 <__assert_fail@GLIBC_2.2.5>
  400786:	68 06 00 00 00       	pushq  $0x6
  40078b:	e9 80 ff ff ff       	jmpq   400710 <.plt>

0000000000400790 <__libc_start_main@plt>:
  400790:	ff 25 ba 18 20 00    	jmpq   *0x2018ba(%rip)        # 602050 <__libc_start_main@GLIBC_2.2.5>
  400796:	68 07 00 00 00       	pushq  $0x7
  40079b:	e9 70 ff ff ff       	jmpq   400710 <.plt>

00000000004007a0 <fgets@plt>:
  4007a0:	ff 25 b2 18 20 00    	jmpq   *0x2018b2(%rip)        # 602058 <fgets@GLIBC_2.2.5>
  4007a6:	68 08 00 00 00       	pushq  $0x8
  4007ab:	e9 60 ff ff ff       	jmpq   400710 <.plt>

00000000004007b0 <__gmon_start__@plt>:
  4007b0:	ff 25 aa 18 20 00    	jmpq   *0x2018aa(%rip)        # 602060 <__gmon_start__>
  4007b6:	68 09 00 00 00       	pushq  $0x9
  4007bb:	e9 50 ff ff ff       	jmpq   400710 <.plt>

00000000004007c0 <malloc@plt>:
  4007c0:	ff 25 a2 18 20 00    	jmpq   *0x2018a2(%rip)        # 602068 <malloc@GLIBC_2.2.5>
  4007c6:	68 0a 00 00 00       	pushq  $0xa
  4007cb:	e9 40 ff ff ff       	jmpq   400710 <.plt>

00000000004007d0 <fopen@plt>:
  4007d0:	ff 25 9a 18 20 00    	jmpq   *0x20189a(%rip)        # 602070 <fopen@GLIBC_2.2.5>
  4007d6:	68 0b 00 00 00       	pushq  $0xb
  4007db:	e9 30 ff ff ff       	jmpq   400710 <.plt>

00000000004007e0 <strtok@plt>:
  4007e0:	ff 25 92 18 20 00    	jmpq   *0x201892(%rip)        # 602078 <strtok@GLIBC_2.2.5>
  4007e6:	68 0c 00 00 00       	pushq  $0xc
  4007eb:	e9 20 ff ff ff       	jmpq   400710 <.plt>

00000000004007f0 <bzero@plt>:
  4007f0:	ff 25 8a 18 20 00    	jmpq   *0x20188a(%rip)        # 602080 <bzero@GLIBC_2.2.5>
  4007f6:	68 0d 00 00 00       	pushq  $0xd
  4007fb:	e9 10 ff ff ff       	jmpq   400710 <.plt>

0000000000400800 <atoi@plt>:
  400800:	ff 25 82 18 20 00    	jmpq   *0x201882(%rip)        # 602088 <atoi@GLIBC_2.2.5>
  400806:	68 0e 00 00 00       	pushq  $0xe
  40080b:	e9 00 ff ff ff       	jmpq   400710 <.plt>

0000000000400810 <sqrt@plt>:
  400810:	ff 25 7a 18 20 00    	jmpq   *0x20187a(%rip)        # 602090 <sqrt@GLIBC_2.2.5>
  400816:	68 0f 00 00 00       	pushq  $0xf
  40081b:	e9 f0 fe ff ff       	jmpq   400710 <.plt>

Disassembly of section .text:

0000000000400820 <_start>:
  400820:	31 ed                	xor    %ebp,%ebp
  400822:	49 89 d1             	mov    %rdx,%r9
  400825:	5e                   	pop    %rsi
  400826:	48 89 e2             	mov    %rsp,%rdx
  400829:	48 83 e4 f0          	and    $0xfffffffffffffff0,%rsp
  40082d:	50                   	push   %rax
  40082e:	54                   	push   %rsp
  40082f:	49 c7 c0 60 11 40 00 	mov    $0x401160,%r8
  400836:	48 c7 c1 f0 10 40 00 	mov    $0x4010f0,%rcx
  40083d:	48 c7 c7 73 0e 40 00 	mov    $0x400e73,%rdi
  400844:	e8 47 ff ff ff       	callq  400790 <__libc_start_main@plt>
  400849:	f4                   	hlt    
  40084a:	66 0f 1f 44 00 00    	nopw   0x0(%rax,%rax,1)

0000000000400850 <deregister_tm_clones>:
  400850:	b8 a7 20 60 00       	mov    $0x6020a7,%eax
  400855:	55                   	push   %rbp
  400856:	48 2d a0 20 60 00    	sub    $0x6020a0,%rax
  40085c:	48 83 f8 0e          	cmp    $0xe,%rax
  400860:	48 89 e5             	mov    %rsp,%rbp
  400863:	77 02                	ja     400867 <deregister_tm_clones+0x17>
  400865:	5d                   	pop    %rbp
  400866:	c3                   	retq   
  400867:	b8 00 00 00 00       	mov    $0x0,%eax
  40086c:	48 85 c0             	test   %rax,%rax
  40086f:	74 f4                	je     400865 <deregister_tm_clones+0x15>
  400871:	5d                   	pop    %rbp
  400872:	bf a0 20 60 00       	mov    $0x6020a0,%edi
  400877:	ff e0                	jmpq   *%rax
  400879:	0f 1f 80 00 00 00 00 	nopl   0x0(%rax)

0000000000400880 <register_tm_clones>:
  400880:	b8 a0 20 60 00       	mov    $0x6020a0,%eax
  400885:	55                   	push   %rbp
  400886:	48 2d a0 20 60 00    	sub    $0x6020a0,%rax
  40088c:	48 c1 f8 03          	sar    $0x3,%rax
  400890:	48 89 e5             	mov    %rsp,%rbp
  400893:	48 89 c2             	mov    %rax,%rdx
  400896:	48 c1 ea 3f          	shr    $0x3f,%rdx
  40089a:	48 01 d0             	add    %rdx,%rax
  40089d:	48 d1 f8             	sar    %rax
  4008a0:	75 02                	jne    4008a4 <register_tm_clones+0x24>
  4008a2:	5d                   	pop    %rbp
  4008a3:	c3                   	retq   
  4008a4:	ba 00 00 00 00       	mov    $0x0,%edx
  4008a9:	48 85 d2             	test   %rdx,%rdx
  4008ac:	74 f4                	je     4008a2 <register_tm_clones+0x22>
  4008ae:	5d                   	pop    %rbp
  4008af:	48 89 c6             	mov    %rax,%rsi
  4008b2:	bf a0 20 60 00       	mov    $0x6020a0,%edi
  4008b7:	ff e2                	jmpq   *%rdx
  4008b9:	0f 1f 80 00 00 00 00 	nopl   0x0(%rax)

00000000004008c0 <__do_global_dtors_aux>:
  4008c0:	80 3d d9 17 20 00 00 	cmpb   $0x0,0x2017d9(%rip)        # 6020a0 <__TMC_END__>
  4008c7:	75 11                	jne    4008da <__do_global_dtors_aux+0x1a>
  4008c9:	55                   	push   %rbp
  4008ca:	48 89 e5             	mov    %rsp,%rbp
  4008cd:	e8 7e ff ff ff       	callq  400850 <deregister_tm_clones>
  4008d2:	5d                   	pop    %rbp
  4008d3:	c6 05 c6 17 20 00 01 	movb   $0x1,0x2017c6(%rip)        # 6020a0 <__TMC_END__>
  4008da:	f3 c3                	repz retq 
  4008dc:	0f 1f 40 00          	nopl   0x0(%rax)

00000000004008e0 <frame_dummy>:
  4008e0:	48 83 3d 28 15 20 00 	cmpq   $0x0,0x201528(%rip)        # 601e10 <__JCR_END__>
  4008e7:	00 
  4008e8:	74 1e                	je     400908 <frame_dummy+0x28>
  4008ea:	b8 00 00 00 00       	mov    $0x0,%eax
  4008ef:	48 85 c0             	test   %rax,%rax
  4008f2:	74 14                	je     400908 <frame_dummy+0x28>
  4008f4:	55                   	push   %rbp
  4008f5:	bf 10 1e 60 00       	mov    $0x601e10,%edi
  4008fa:	48 89 e5             	mov    %rsp,%rbp
  4008fd:	ff d0                	callq  *%rax
  4008ff:	5d                   	pop    %rbp
  400900:	e9 7b ff ff ff       	jmpq   400880 <register_tm_clones>
  400905:	0f 1f 00             	nopl   (%rax)
  400908:	e9 73 ff ff ff       	jmpq   400880 <register_tm_clones>

000000000040090d <distance>:
  40090d:	55                   	push   %rbp
  40090e:	48 89 e5             	mov    %rsp,%rbp
  400911:	48 83 ec 20          	sub    $0x20,%rsp
  400915:	89 7d ec             	mov    %edi,-0x14(%rbp)
  400918:	89 75 e8             	mov    %esi,-0x18(%rbp)
  40091b:	b8 00 00 00 00       	mov    $0x0,%eax
  400920:	48 89 45 f8          	mov    %rax,-0x8(%rbp)
  400924:	c7 45 f4 00 00 00 00 	movl   $0x0,-0xc(%rbp)
  40092b:	e9 c1 00 00 00       	jmpq   4009f1 <distance+0xe4>
  400930:	48 8b 0d 71 17 20 00 	mov    0x201771(%rip),%rcx        # 6020a8 <dataset>
  400937:	8b 45 ec             	mov    -0x14(%rbp),%eax
  40093a:	48 63 d0             	movslq %eax,%rdx
  40093d:	48 89 d0             	mov    %rdx,%rax
  400940:	48 c1 e0 02          	shl    $0x2,%rax
  400944:	48 01 d0             	add    %rdx,%rax
  400947:	48 c1 e0 04          	shl    $0x4,%rax
  40094b:	48 8d 14 01          	lea    (%rcx,%rax,1),%rdx
  40094f:	8b 45 f4             	mov    -0xc(%rbp),%eax
  400952:	48 98                	cltq   
  400954:	8b 4c 82 08          	mov    0x8(%rdx,%rax,4),%ecx
  400958:	48 8b 35 49 17 20 00 	mov    0x201749(%rip),%rsi        # 6020a8 <dataset>
  40095f:	8b 45 e8             	mov    -0x18(%rbp),%eax
  400962:	48 63 d0             	movslq %eax,%rdx
  400965:	48 89 d0             	mov    %rdx,%rax
  400968:	48 c1 e0 02          	shl    $0x2,%rax
  40096c:	48 01 d0             	add    %rdx,%rax
  40096f:	48 c1 e0 04          	shl    $0x4,%rax
  400973:	48 8d 14 06          	lea    (%rsi,%rax,1),%rdx
  400977:	8b 45 f4             	mov    -0xc(%rbp),%eax
  40097a:	48 98                	cltq   
  40097c:	8b 44 82 08          	mov    0x8(%rdx,%rax,4),%eax
  400980:	89 cf                	mov    %ecx,%edi
  400982:	29 c7                	sub    %eax,%edi
  400984:	48 8b 0d 1d 17 20 00 	mov    0x20171d(%rip),%rcx        # 6020a8 <dataset>
  40098b:	8b 45 ec             	mov    -0x14(%rbp),%eax
  40098e:	48 63 d0             	movslq %eax,%rdx
  400991:	48 89 d0             	mov    %rdx,%rax
  400994:	48 c1 e0 02          	shl    $0x2,%rax
  400998:	48 01 d0             	add    %rdx,%rax
  40099b:	48 c1 e0 04          	shl    $0x4,%rax
  40099f:	48 8d 14 01          	lea    (%rcx,%rax,1),%rdx
  4009a3:	8b 45 f4             	mov    -0xc(%rbp),%eax
  4009a6:	48 98                	cltq   
  4009a8:	8b 4c 82 08          	mov    0x8(%rdx,%rax,4),%ecx
  4009ac:	48 8b 35 f5 16 20 00 	mov    0x2016f5(%rip),%rsi        # 6020a8 <dataset>
  4009b3:	8b 45 e8             	mov    -0x18(%rbp),%eax
  4009b6:	48 63 d0             	movslq %eax,%rdx
  4009b9:	48 89 d0             	mov    %rdx,%rax
  4009bc:	48 c1 e0 02          	shl    $0x2,%rax
  4009c0:	48 01 d0             	add    %rdx,%rax
  4009c3:	48 c1 e0 04          	shl    $0x4,%rax
  4009c7:	48 8d 14 06          	lea    (%rsi,%rax,1),%rdx
  4009cb:	8b 45 f4             	mov    -0xc(%rbp),%eax
  4009ce:	48 98                	cltq   
  4009d0:	8b 44 82 08          	mov    0x8(%rdx,%rax,4),%eax
  4009d4:	29 c1                	sub    %eax,%ecx
  4009d6:	89 c8                	mov    %ecx,%eax
  4009d8:	0f af c7             	imul   %edi,%eax
  4009db:	f2 0f 2a c0          	cvtsi2sd %eax,%xmm0
  4009df:	f2 0f 10 4d f8       	movsd  -0x8(%rbp),%xmm1
  4009e4:	f2 0f 58 c1          	addsd  %xmm1,%xmm0
  4009e8:	f2 0f 11 45 f8       	movsd  %xmm0,-0x8(%rbp)
  4009ed:	83 45 f4 01          	addl   $0x1,-0xc(%rbp)
  4009f1:	83 7d f4 0f          	cmpl   $0xf,-0xc(%rbp)
  4009f5:	0f 8e 35 ff ff ff    	jle    400930 <distance+0x23>
  4009fb:	48 8b 45 f8          	mov    -0x8(%rbp),%rax
  4009ff:	48 89 45 e0          	mov    %rax,-0x20(%rbp)
  400a03:	f2 0f 10 45 e0       	movsd  -0x20(%rbp),%xmm0
  400a08:	e8 03 fe ff ff       	callq  400810 <sqrt@plt>
  400a0d:	f2 0f 11 45 e0       	movsd  %xmm0,-0x20(%rbp)
  400a12:	48 8b 45 e0          	mov    -0x20(%rbp),%rax
  400a16:	48 89 45 e0          	mov    %rax,-0x20(%rbp)
  400a1a:	f2 0f 10 45 e0       	movsd  -0x20(%rbp),%xmm0
  400a1f:	c9                   	leaveq 
  400a20:	c3                   	retq   

0000000000400a21 <find_neighbors>:
  400a21:	55                   	push   %rbp
  400a22:	48 89 e5             	mov    %rsp,%rbp
  400a25:	48 83 ec 20          	sub    $0x20,%rsp
  400a29:	89 7d ec             	mov    %edi,-0x14(%rbp)
  400a2c:	bf a0 01 00 00       	mov    $0x1a0,%edi
  400a31:	e8 8a fd ff ff       	callq  4007c0 <malloc@plt>
  400a36:	48 89 45 f0          	mov    %rax,-0x10(%rbp)
  400a3a:	48 8b 45 f0          	mov    -0x10(%rbp),%rax
  400a3e:	be a0 01 00 00       	mov    $0x1a0,%esi
  400a43:	48 89 c7             	mov    %rax,%rdi
  400a46:	e8 a5 fd ff ff       	callq  4007f0 <bzero@plt>
  400a4b:	c7 45 fc 00 00 00 00 	movl   $0x0,-0x4(%rbp)
  400a52:	eb 4c                	jmp    400aa0 <find_neighbors+0x7f>
  400a54:	8b 45 fc             	mov    -0x4(%rbp),%eax
  400a57:	3b 45 ec             	cmp    -0x14(%rbp),%eax
  400a5a:	75 02                	jne    400a5e <find_neighbors+0x3d>
  400a5c:	eb 3e                	jmp    400a9c <find_neighbors+0x7b>
  400a5e:	8b 55 fc             	mov    -0x4(%rbp),%edx
  400a61:	8b 45 ec             	mov    -0x14(%rbp),%eax
  400a64:	89 d6                	mov    %edx,%esi
  400a66:	89 c7                	mov    %eax,%edi
  400a68:	e8 a0 fe ff ff       	callq  40090d <distance>
  400a6d:	f2 0f 10 0d 53 07 00 	movsd  0x753(%rip),%xmm1        # 4011c8 <__PRETTY_FUNCTION__.3101+0x5>
  400a74:	00 
  400a75:	66 0f 2e c8          	ucomisd %xmm0,%xmm1
  400a79:	72 21                	jb     400a9c <find_neighbors+0x7b>
  400a7b:	48 8b 45 f0          	mov    -0x10(%rbp),%rax
  400a7f:	8b 55 fc             	mov    -0x4(%rbp),%edx
  400a82:	48 63 d2             	movslq %edx,%rdx
  400a85:	c7 44 90 04 01 00 00 	movl   $0x1,0x4(%rax,%rdx,4)
  400a8c:	00 
  400a8d:	48 8b 45 f0          	mov    -0x10(%rbp),%rax
  400a91:	8b 00                	mov    (%rax),%eax
  400a93:	8d 50 01             	lea    0x1(%rax),%edx
  400a96:	48 8b 45 f0          	mov    -0x10(%rbp),%rax
  400a9a:	89 10                	mov    %edx,(%rax)
  400a9c:	83 45 fc 01          	addl   $0x1,-0x4(%rbp)
  400aa0:	83 7d fc 66          	cmpl   $0x66,-0x4(%rbp)
  400aa4:	7e ae                	jle    400a54 <find_neighbors+0x33>
  400aa6:	48 8b 45 f0          	mov    -0x10(%rbp),%rax
  400aaa:	c9                   	leaveq 
  400aab:	c3                   	retq   

0000000000400aac <free_neighbors>:
  400aac:	55                   	push   %rbp
  400aad:	48 89 e5             	mov    %rsp,%rbp
  400ab0:	48 83 ec 10          	sub    $0x10,%rsp
  400ab4:	48 89 7d f8          	mov    %rdi,-0x8(%rbp)
  400ab8:	48 8b 45 f8          	mov    -0x8(%rbp),%rax
  400abc:	48 89 c7             	mov    %rax,%rdi
  400abf:	e8 5c fc ff ff       	callq  400720 <free@plt>
  400ac4:	90                   	nop
  400ac5:	c9                   	leaveq 
  400ac6:	c3                   	retq   

0000000000400ac7 <fold_neighbors>:
  400ac7:	55                   	push   %rbp
  400ac8:	48 89 e5             	mov    %rsp,%rbp
  400acb:	48 89 7d e8          	mov    %rdi,-0x18(%rbp)
  400acf:	48 89 75 e0          	mov    %rsi,-0x20(%rbp)
  400ad3:	c7 45 fc 00 00 00 00 	movl   $0x0,-0x4(%rbp)
  400ada:	eb 28                	jmp    400b04 <fold_neighbors+0x3d>
  400adc:	48 8b 45 e0          	mov    -0x20(%rbp),%rax
  400ae0:	8b 55 fc             	mov    -0x4(%rbp),%edx
  400ae3:	48 63 d2             	movslq %edx,%rdx
  400ae6:	8b 44 90 04          	mov    0x4(%rax,%rdx,4),%eax
  400aea:	85 c0                	test   %eax,%eax
  400aec:	74 12                	je     400b00 <fold_neighbors+0x39>
  400aee:	48 8b 45 e8          	mov    -0x18(%rbp),%rax
  400af2:	8b 55 fc             	mov    -0x4(%rbp),%edx
  400af5:	48 63 d2             	movslq %edx,%rdx
  400af8:	c7 44 90 04 01 00 00 	movl   $0x1,0x4(%rax,%rdx,4)
  400aff:	00 
  400b00:	83 45 fc 01          	addl   $0x1,-0x4(%rbp)
  400b04:	83 7d fc 66          	cmpl   $0x66,-0x4(%rbp)
  400b08:	7e d2                	jle    400adc <fold_neighbors+0x15>
  400b0a:	90                   	nop
  400b0b:	5d                   	pop    %rbp
  400b0c:	c3                   	retq   

0000000000400b0d <process_neighbors>:
  400b0d:	55                   	push   %rbp
  400b0e:	48 89 e5             	mov    %rsp,%rbp
  400b11:	48 83 ec 20          	sub    $0x20,%rsp
  400b15:	89 7d ec             	mov    %edi,-0x14(%rbp)
  400b18:	48 89 75 e0          	mov    %rsi,-0x20(%rbp)
  400b1c:	c7 45 fc 00 00 00 00 	movl   $0x0,-0x4(%rbp)
  400b23:	e9 41 01 00 00       	jmpq   400c69 <process_neighbors+0x15c>
  400b28:	48 8b 45 e0          	mov    -0x20(%rbp),%rax
  400b2c:	8b 55 fc             	mov    -0x4(%rbp),%edx
  400b2f:	48 63 d2             	movslq %edx,%rdx
  400b32:	8b 44 90 04          	mov    0x4(%rax,%rdx,4),%eax
  400b36:	85 c0                	test   %eax,%eax
  400b38:	0f 84 27 01 00 00    	je     400c65 <process_neighbors+0x158>
  400b3e:	48 8b 45 e0          	mov    -0x20(%rbp),%rax
  400b42:	8b 55 fc             	mov    -0x4(%rbp),%edx
  400b45:	48 63 d2             	movslq %edx,%rdx
  400b48:	c7 44 90 04 00 00 00 	movl   $0x0,0x4(%rax,%rdx,4)
  400b4f:	00 
  400b50:	48 8b 0d 51 15 20 00 	mov    0x201551(%rip),%rcx        # 6020a8 <dataset>
  400b57:	8b 45 fc             	mov    -0x4(%rbp),%eax
  400b5a:	48 63 d0             	movslq %eax,%rdx
  400b5d:	48 89 d0             	mov    %rdx,%rax
  400b60:	48 c1 e0 02          	shl    $0x2,%rax
  400b64:	48 01 d0             	add    %rdx,%rax
  400b67:	48 c1 e0 04          	shl    $0x4,%rax
  400b6b:	48 01 c8             	add    %rcx,%rax
  400b6e:	8b 40 4c             	mov    0x4c(%rax),%eax
  400b71:	83 f8 08             	cmp    $0x8,%eax
  400b74:	75 44                	jne    400bba <process_neighbors+0xad>
  400b76:	48 8b 0d 2b 15 20 00 	mov    0x20152b(%rip),%rcx        # 6020a8 <dataset>
  400b7d:	8b 45 fc             	mov    -0x4(%rbp),%eax
  400b80:	48 63 d0             	movslq %eax,%rdx
  400b83:	48 89 d0             	mov    %rdx,%rax
  400b86:	48 c1 e0 02          	shl    $0x2,%rax
  400b8a:	48 01 d0             	add    %rdx,%rax
  400b8d:	48 c1 e0 04          	shl    $0x4,%rax
  400b91:	48 01 c1             	add    %rax,%rcx
  400b94:	48 8b 35 0d 15 20 00 	mov    0x20150d(%rip),%rsi        # 6020a8 <dataset>
  400b9b:	8b 45 ec             	mov    -0x14(%rbp),%eax
  400b9e:	48 63 d0             	movslq %eax,%rdx
  400ba1:	48 89 d0             	mov    %rdx,%rax
  400ba4:	48 c1 e0 02          	shl    $0x2,%rax
  400ba8:	48 01 d0             	add    %rdx,%rax
  400bab:	48 c1 e0 04          	shl    $0x4,%rax
  400baf:	48 01 f0             	add    %rsi,%rax
  400bb2:	8b 40 4c             	mov    0x4c(%rax),%eax
  400bb5:	89 41 4c             	mov    %eax,0x4c(%rcx)
  400bb8:	eb 2a                	jmp    400be4 <process_neighbors+0xd7>
  400bba:	48 8b 0d e7 14 20 00 	mov    0x2014e7(%rip),%rcx        # 6020a8 <dataset>
  400bc1:	8b 45 fc             	mov    -0x4(%rbp),%eax
  400bc4:	48 63 d0             	movslq %eax,%rdx
  400bc7:	48 89 d0             	mov    %rdx,%rax
  400bca:	48 c1 e0 02          	shl    $0x2,%rax
  400bce:	48 01 d0             	add    %rdx,%rax
  400bd1:	48 c1 e0 04          	shl    $0x4,%rax
  400bd5:	48 01 c8             	add    %rcx,%rax
  400bd8:	8b 40 4c             	mov    0x4c(%rax),%eax
  400bdb:	85 c0                	test   %eax,%eax
  400bdd:	74 05                	je     400be4 <process_neighbors+0xd7>
  400bdf:	e9 81 00 00 00       	jmpq   400c65 <process_neighbors+0x158>
  400be4:	48 8b 0d bd 14 20 00 	mov    0x2014bd(%rip),%rcx        # 6020a8 <dataset>
  400beb:	8b 45 fc             	mov    -0x4(%rbp),%eax
  400bee:	48 63 d0             	movslq %eax,%rdx
  400bf1:	48 89 d0             	mov    %rdx,%rax
  400bf4:	48 c1 e0 02          	shl    $0x2,%rax
  400bf8:	48 01 d0             	add    %rdx,%rax
  400bfb:	48 c1 e0 04          	shl    $0x4,%rax
  400bff:	48 01 c1             	add    %rax,%rcx
  400c02:	48 8b 35 9f 14 20 00 	mov    0x20149f(%rip),%rsi        # 6020a8 <dataset>
  400c09:	8b 45 ec             	mov    -0x14(%rbp),%eax
  400c0c:	48 63 d0             	movslq %eax,%rdx
  400c0f:	48 89 d0             	mov    %rdx,%rax
  400c12:	48 c1 e0 02          	shl    $0x2,%rax
  400c16:	48 01 d0             	add    %rdx,%rax
  400c19:	48 c1 e0 04          	shl    $0x4,%rax
  400c1d:	48 01 f0             	add    %rsi,%rax
  400c20:	8b 40 4c             	mov    0x4c(%rax),%eax
  400c23:	89 41 4c             	mov    %eax,0x4c(%rcx)
  400c26:	8b 45 fc             	mov    -0x4(%rbp),%eax
  400c29:	89 c7                	mov    %eax,%edi
  400c2b:	e8 f1 fd ff ff       	callq  400a21 <find_neighbors>
  400c30:	48 89 45 f0          	mov    %rax,-0x10(%rbp)
  400c34:	48 8b 45 f0          	mov    -0x10(%rbp),%rax
  400c38:	8b 00                	mov    (%rax),%eax
  400c3a:	83 f8 03             	cmp    $0x3,%eax
  400c3d:	7e 1a                	jle    400c59 <process_neighbors+0x14c>
  400c3f:	48 8b 55 f0          	mov    -0x10(%rbp),%rdx
  400c43:	48 8b 45 e0          	mov    -0x20(%rbp),%rax
  400c47:	48 89 d6             	mov    %rdx,%rsi
  400c4a:	48 89 c7             	mov    %rax,%rdi
  400c4d:	e8 75 fe ff ff       	callq  400ac7 <fold_neighbors>
  400c52:	c7 45 fc 00 00 00 00 	movl   $0x0,-0x4(%rbp)
  400c59:	48 8b 45 f0          	mov    -0x10(%rbp),%rax
  400c5d:	48 89 c7             	mov    %rax,%rdi
  400c60:	e8 47 fe ff ff       	callq  400aac <free_neighbors>
  400c65:	83 45 fc 01          	addl   $0x1,-0x4(%rbp)
  400c69:	83 7d fc 66          	cmpl   $0x66,-0x4(%rbp)
  400c6d:	0f 8e b5 fe ff ff    	jle    400b28 <process_neighbors+0x1b>
  400c73:	90                   	nop
  400c74:	c9                   	leaveq 
  400c75:	c3                   	retq   

0000000000400c76 <dbscan>:
  400c76:	55                   	push   %rbp
  400c77:	48 89 e5             	mov    %rsp,%rbp
  400c7a:	48 83 ec 10          	sub    $0x10,%rsp
  400c7e:	c7 45 fc 00 00 00 00 	movl   $0x0,-0x4(%rbp)
  400c85:	c7 45 f8 00 00 00 00 	movl   $0x0,-0x8(%rbp)
  400c8c:	e9 c0 00 00 00       	jmpq   400d51 <dbscan+0xdb>
  400c91:	48 8b 0d 10 14 20 00 	mov    0x201410(%rip),%rcx        # 6020a8 <dataset>
  400c98:	8b 45 f8             	mov    -0x8(%rbp),%eax
  400c9b:	48 63 d0             	movslq %eax,%rdx
  400c9e:	48 89 d0             	mov    %rdx,%rax
  400ca1:	48 c1 e0 02          	shl    $0x2,%rax
  400ca5:	48 01 d0             	add    %rdx,%rax
  400ca8:	48 c1 e0 04          	shl    $0x4,%rax
  400cac:	48 01 c8             	add    %rcx,%rax
  400caf:	8b 40 4c             	mov    0x4c(%rax),%eax
  400cb2:	85 c0                	test   %eax,%eax
  400cb4:	74 05                	je     400cbb <dbscan+0x45>
  400cb6:	e9 92 00 00 00       	jmpq   400d4d <dbscan+0xd7>
  400cbb:	8b 45 f8             	mov    -0x8(%rbp),%eax
  400cbe:	89 c7                	mov    %eax,%edi
  400cc0:	e8 5c fd ff ff       	callq  400a21 <find_neighbors>
  400cc5:	48 89 45 f0          	mov    %rax,-0x10(%rbp)
  400cc9:	48 8b 45 f0          	mov    -0x10(%rbp),%rax
  400ccd:	8b 00                	mov    (%rax),%eax
  400ccf:	83 f8 03             	cmp    $0x3,%eax
  400cd2:	7f 33                	jg     400d07 <dbscan+0x91>
  400cd4:	48 8b 0d cd 13 20 00 	mov    0x2013cd(%rip),%rcx        # 6020a8 <dataset>
  400cdb:	8b 45 f8             	mov    -0x8(%rbp),%eax
  400cde:	48 63 d0             	movslq %eax,%rdx
  400ce1:	48 89 d0             	mov    %rdx,%rax
  400ce4:	48 c1 e0 02          	shl    $0x2,%rax
  400ce8:	48 01 d0             	add    %rdx,%rax
  400ceb:	48 c1 e0 04          	shl    $0x4,%rax
  400cef:	48 01 c8             	add    %rcx,%rax
  400cf2:	c7 40 4c 08 00 00 00 	movl   $0x8,0x4c(%rax)
  400cf9:	48 8b 45 f0          	mov    -0x10(%rbp),%rax
  400cfd:	48 89 c7             	mov    %rax,%rdi
  400d00:	e8 a7 fd ff ff       	callq  400aac <free_neighbors>
  400d05:	eb 46                	jmp    400d4d <dbscan+0xd7>
  400d07:	48 8b 0d 9a 13 20 00 	mov    0x20139a(%rip),%rcx        # 6020a8 <dataset>
  400d0e:	8b 45 f8             	mov    -0x8(%rbp),%eax
  400d11:	48 63 d0             	movslq %eax,%rdx
  400d14:	48 89 d0             	mov    %rdx,%rax
  400d17:	48 c1 e0 02          	shl    $0x2,%rax
  400d1b:	48 01 d0             	add    %rdx,%rax
  400d1e:	48 c1 e0 04          	shl    $0x4,%rax
  400d22:	48 8d 14 01          	lea    (%rcx,%rax,1),%rdx
  400d26:	83 45 fc 01          	addl   $0x1,-0x4(%rbp)
  400d2a:	8b 45 fc             	mov    -0x4(%rbp),%eax
  400d2d:	89 42 4c             	mov    %eax,0x4c(%rdx)
  400d30:	48 8b 55 f0          	mov    -0x10(%rbp),%rdx
  400d34:	8b 45 f8             	mov    -0x8(%rbp),%eax
  400d37:	48 89 d6             	mov    %rdx,%rsi
  400d3a:	89 c7                	mov    %eax,%edi
  400d3c:	e8 cc fd ff ff       	callq  400b0d <process_neighbors>
  400d41:	48 8b 45 f0          	mov    -0x10(%rbp),%rax
  400d45:	48 89 c7             	mov    %rax,%rdi
  400d48:	e8 5f fd ff ff       	callq  400aac <free_neighbors>
  400d4d:	83 45 f8 01          	addl   $0x1,-0x8(%rbp)
  400d51:	83 7d f8 66          	cmpl   $0x66,-0x8(%rbp)
  400d55:	0f 8e 36 ff ff ff    	jle    400c91 <dbscan+0x1b>
  400d5b:	8b 45 fc             	mov    -0x4(%rbp),%eax
  400d5e:	c9                   	leaveq 
  400d5f:	c3                   	retq   

0000000000400d60 <print_dataset>:
  400d60:	55                   	push   %rbp
  400d61:	48 89 e5             	mov    %rsp,%rbp
  400d64:	48 83 ec 10          	sub    $0x10,%rsp
  400d68:	c7 45 fc 00 00 00 00 	movl   $0x0,-0x4(%rbp)
  400d6f:	e9 f3 00 00 00       	jmpq   400e67 <print_dataset+0x107>
  400d74:	48 8b 0d 2d 13 20 00 	mov    0x20132d(%rip),%rcx        # 6020a8 <dataset>
  400d7b:	8b 45 fc             	mov    -0x4(%rbp),%eax
  400d7e:	48 63 d0             	movslq %eax,%rdx
  400d81:	48 89 d0             	mov    %rdx,%rax
  400d84:	48 c1 e0 02          	shl    $0x2,%rax
  400d88:	48 01 d0             	add    %rdx,%rax
  400d8b:	48 c1 e0 04          	shl    $0x4,%rax
  400d8f:	48 01 c8             	add    %rcx,%rax
  400d92:	48 8b 10             	mov    (%rax),%rdx
  400d95:	8b 45 fc             	mov    -0x4(%rbp),%eax
  400d98:	89 c6                	mov    %eax,%esi
  400d9a:	bf 80 11 40 00       	mov    $0x401180,%edi
  400d9f:	b8 00 00 00 00       	mov    $0x0,%eax
  400da4:	e8 c7 f9 ff ff       	callq  400770 <printf@plt>
  400da9:	c7 45 f8 00 00 00 00 	movl   $0x0,-0x8(%rbp)
  400db0:	eb 3d                	jmp    400def <print_dataset+0x8f>
  400db2:	48 8b 0d ef 12 20 00 	mov    0x2012ef(%rip),%rcx        # 6020a8 <dataset>
  400db9:	8b 45 fc             	mov    -0x4(%rbp),%eax
  400dbc:	48 63 d0             	movslq %eax,%rdx
  400dbf:	48 89 d0             	mov    %rdx,%rax
  400dc2:	48 c1 e0 02          	shl    $0x2,%rax
  400dc6:	48 01 d0             	add    %rdx,%rax
  400dc9:	48 c1 e0 04          	shl    $0x4,%rax
  400dcd:	48 8d 14 01          	lea    (%rcx,%rax,1),%rdx
  400dd1:	8b 45 f8             	mov    -0x8(%rbp),%eax
  400dd4:	48 98                	cltq   
  400dd6:	8b 44 82 08          	mov    0x8(%rdx,%rax,4),%eax
  400dda:	89 c6                	mov    %eax,%esi
  400ddc:	bf 89 11 40 00       	mov    $0x401189,%edi
  400de1:	b8 00 00 00 00       	mov    $0x0,%eax
  400de6:	e8 85 f9 ff ff       	callq  400770 <printf@plt>
  400deb:	83 45 f8 01          	addl   $0x1,-0x8(%rbp)
  400def:	83 7d f8 0f          	cmpl   $0xf,-0x8(%rbp)
  400df3:	7e bd                	jle    400db2 <print_dataset+0x52>
  400df5:	48 8b 0d ac 12 20 00 	mov    0x2012ac(%rip),%rcx        # 6020a8 <dataset>
  400dfc:	8b 45 fc             	mov    -0x4(%rbp),%eax
  400dff:	48 63 d0             	movslq %eax,%rdx
  400e02:	48 89 d0             	mov    %rdx,%rax
  400e05:	48 c1 e0 02          	shl    $0x2,%rax
  400e09:	48 01 d0             	add    %rdx,%rax
  400e0c:	48 c1 e0 04          	shl    $0x4,%rax
  400e10:	48 01 c8             	add    %rcx,%rax
  400e13:	8b 40 48             	mov    0x48(%rax),%eax
  400e16:	89 c6                	mov    %eax,%esi
  400e18:	bf 89 11 40 00       	mov    $0x401189,%edi
  400e1d:	b8 00 00 00 00       	mov    $0x0,%eax
  400e22:	e8 49 f9 ff ff       	callq  400770 <printf@plt>
  400e27:	48 8b 0d 7a 12 20 00 	mov    0x20127a(%rip),%rcx        # 6020a8 <dataset>
  400e2e:	8b 45 fc             	mov    -0x4(%rbp),%eax
  400e31:	48 63 d0             	movslq %eax,%rdx
  400e34:	48 89 d0             	mov    %rdx,%rax
  400e37:	48 c1 e0 02          	shl    $0x2,%rax
  400e3b:	48 01 d0             	add    %rdx,%rax
  400e3e:	48 c1 e0 04          	shl    $0x4,%rax
  400e42:	48 01 c8             	add    %rcx,%rax
  400e45:	8b 40 4c             	mov    0x4c(%rax),%eax
  400e48:	89 c6                	mov    %eax,%esi
  400e4a:	bf 8e 11 40 00       	mov    $0x40118e,%edi
  400e4f:	b8 00 00 00 00       	mov    $0x0,%eax
  400e54:	e8 17 f9 ff ff       	callq  400770 <printf@plt>
  400e59:	bf 0a 00 00 00       	mov    $0xa,%edi
  400e5e:	e8 cd f8 ff ff       	callq  400730 <putchar@plt>
  400e63:	83 45 fc 01          	addl   $0x1,-0x4(%rbp)
  400e67:	83 7d fc 66          	cmpl   $0x66,-0x4(%rbp)
  400e6b:	0f 8e 03 ff ff ff    	jle    400d74 <print_dataset+0x14>
  400e71:	c9                   	leaveq 
  400e72:	c3                   	retq   

0000000000400e73 <main>:
  400e73:	55                   	push   %rbp
  400e74:	48 89 e5             	mov    %rsp,%rbp
  400e77:	41 54                	push   %r12
  400e79:	53                   	push   %rbx
  400e7a:	48 81 ec 50 27 00 00 	sub    $0x2750,%rsp
  400e81:	66 c7 85 a0 d8 ff ff 	movw   $0x2c,-0x2760(%rbp)
  400e88:	2c 00 
  400e8a:	bf 30 20 00 00       	mov    $0x2030,%edi
  400e8f:	e8 2c f9 ff ff       	callq  4007c0 <malloc@plt>
  400e94:	48 89 05 0d 12 20 00 	mov    %rax,0x20120d(%rip)        # 6020a8 <dataset>
  400e9b:	be 91 11 40 00       	mov    $0x401191,%esi
  400ea0:	bf 93 11 40 00       	mov    $0x401193,%edi
  400ea5:	e8 26 f9 ff ff       	callq  4007d0 <fopen@plt>
  400eaa:	48 89 45 d0          	mov    %rax,-0x30(%rbp)
  400eae:	c7 45 e4 00 00 00 00 	movl   $0x0,-0x1c(%rbp)
  400eb5:	c7 45 e0 00 00 00 00 	movl   $0x0,-0x20(%rbp)
  400ebc:	48 8b 55 d0          	mov    -0x30(%rbp),%rdx
  400ec0:	48 8d 85 b0 d8 ff ff 	lea    -0x2750(%rbp),%rax
  400ec7:	be 10 27 00 00       	mov    $0x2710,%esi
  400ecc:	48 89 c7             	mov    %rax,%rdi
  400ecf:	e8 cc f8 ff ff       	callq  4007a0 <fgets@plt>
  400ed4:	48 85 c0             	test   %rax,%rax
  400ed7:	75 19                	jne    400ef2 <main+0x7f>
  400ed9:	90                   	nop
  400eda:	48 8b 45 d0          	mov    -0x30(%rbp),%rax
  400ede:	48 89 c7             	mov    %rax,%rdi
  400ee1:	e8 6a f8 ff ff       	callq  400750 <fclose@plt>
  400ee6:	c7 45 dc 00 00 00 00 	movl   $0x0,-0x24(%rbp)
  400eed:	e9 d4 01 00 00       	jmpq   4010c6 <main+0x253>
  400ef2:	48 8d 85 b0 d8 ff ff 	lea    -0x2750(%rbp),%rax
  400ef9:	48 89 45 c8          	mov    %rax,-0x38(%rbp)
  400efd:	48 8d 95 a0 d8 ff ff 	lea    -0x2760(%rbp),%rdx
  400f04:	48 8b 45 c8          	mov    -0x38(%rbp),%rax
  400f08:	48 89 d6             	mov    %rdx,%rsi
  400f0b:	48 89 c7             	mov    %rax,%rdi
  400f0e:	e8 cd f8 ff ff       	callq  4007e0 <strtok@plt>
  400f13:	48 89 45 e8          	mov    %rax,-0x18(%rbp)
  400f17:	e9 62 01 00 00       	jmpq   40107e <main+0x20b>
  400f1c:	83 7d e4 00          	cmpl   $0x0,-0x1c(%rbp)
  400f20:	75 6b                	jne    400f8d <main+0x11a>
  400f22:	48 8b 0d 7f 11 20 00 	mov    0x20117f(%rip),%rcx        # 6020a8 <dataset>
  400f29:	8b 45 e0             	mov    -0x20(%rbp),%eax
  400f2c:	48 63 d0             	movslq %eax,%rdx
  400f2f:	48 89 d0             	mov    %rdx,%rax
  400f32:	48 c1 e0 02          	shl    $0x2,%rax
  400f36:	48 01 d0             	add    %rdx,%rax
  400f39:	48 c1 e0 04          	shl    $0x4,%rax
  400f3d:	48 8d 1c 01          	lea    (%rcx,%rax,1),%rbx
  400f41:	48 8b 45 e8          	mov    -0x18(%rbp),%rax
  400f45:	48 89 c7             	mov    %rax,%rdi
  400f48:	e8 13 f8 ff ff       	callq  400760 <strlen@plt>
  400f4d:	48 89 c7             	mov    %rax,%rdi
  400f50:	e8 6b f8 ff ff       	callq  4007c0 <malloc@plt>
  400f55:	48 89 03             	mov    %rax,(%rbx)
  400f58:	48 8b 0d 49 11 20 00 	mov    0x201149(%rip),%rcx        # 6020a8 <dataset>
  400f5f:	8b 45 e0             	mov    -0x20(%rbp),%eax
  400f62:	48 63 d0             	movslq %eax,%rdx
  400f65:	48 89 d0             	mov    %rdx,%rax
  400f68:	48 c1 e0 02          	shl    $0x2,%rax
  400f6c:	48 01 d0             	add    %rdx,%rax
  400f6f:	48 c1 e0 04          	shl    $0x4,%rax
  400f73:	48 01 c8             	add    %rcx,%rax
  400f76:	48 8b 00             	mov    (%rax),%rax
  400f79:	48 8b 55 e8          	mov    -0x18(%rbp),%rdx
  400f7d:	48 89 d6             	mov    %rdx,%rsi
  400f80:	48 89 c7             	mov    %rax,%rdi
  400f83:	e8 b8 f7 ff ff       	callq  400740 <strcpy@plt>
  400f88:	e9 d5 00 00 00       	jmpq   401062 <main+0x1ef>
  400f8d:	83 7d e4 00          	cmpl   $0x0,-0x1c(%rbp)
  400f91:	7e 44                	jle    400fd7 <main+0x164>
  400f93:	83 7d e4 10          	cmpl   $0x10,-0x1c(%rbp)
  400f97:	7f 3e                	jg     400fd7 <main+0x164>
  400f99:	48 8b 0d 08 11 20 00 	mov    0x201108(%rip),%rcx        # 6020a8 <dataset>
  400fa0:	8b 45 e0             	mov    -0x20(%rbp),%eax
  400fa3:	48 63 d0             	movslq %eax,%rdx
  400fa6:	48 89 d0             	mov    %rdx,%rax
  400fa9:	48 c1 e0 02          	shl    $0x2,%rax
  400fad:	48 01 d0             	add    %rdx,%rax
  400fb0:	48 c1 e0 04          	shl    $0x4,%rax
  400fb4:	48 8d 1c 01          	lea    (%rcx,%rax,1),%rbx
  400fb8:	8b 45 e4             	mov    -0x1c(%rbp),%eax
  400fbb:	44 8d 60 ff          	lea    -0x1(%rax),%r12d
  400fbf:	48 8b 45 e8          	mov    -0x18(%rbp),%rax
  400fc3:	48 89 c7             	mov    %rax,%rdi
  400fc6:	e8 35 f8 ff ff       	callq  400800 <atoi@plt>
  400fcb:	49 63 d4             	movslq %r12d,%rdx
  400fce:	89 44 93 08          	mov    %eax,0x8(%rbx,%rdx,4)
  400fd2:	e9 8b 00 00 00       	jmpq   401062 <main+0x1ef>
  400fd7:	83 7d e4 11          	cmpl   $0x11,-0x1c(%rbp)
  400fdb:	75 30                	jne    40100d <main+0x19a>
  400fdd:	48 8b 0d c4 10 20 00 	mov    0x2010c4(%rip),%rcx        # 6020a8 <dataset>
  400fe4:	8b 45 e0             	mov    -0x20(%rbp),%eax
  400fe7:	48 63 d0             	movslq %eax,%rdx
  400fea:	48 89 d0             	mov    %rdx,%rax
  400fed:	48 c1 e0 02          	shl    $0x2,%rax
  400ff1:	48 01 d0             	add    %rdx,%rax
  400ff4:	48 c1 e0 04          	shl    $0x4,%rax
  400ff8:	48 8d 1c 01          	lea    (%rcx,%rax,1),%rbx
  400ffc:	48 8b 45 e8          	mov    -0x18(%rbp),%rax
  401000:	48 89 c7             	mov    %rax,%rdi
  401003:	e8 f8 f7 ff ff       	callq  400800 <atoi@plt>
  401008:	89 43 48             	mov    %eax,0x48(%rbx)
  40100b:	eb 55                	jmp    401062 <main+0x1ef>
  40100d:	83 7d e4 12          	cmpl   $0x12,-0x1c(%rbp)
  401011:	75 30                	jne    401043 <main+0x1d0>
  401013:	48 8b 0d 8e 10 20 00 	mov    0x20108e(%rip),%rcx        # 6020a8 <dataset>
  40101a:	8b 45 e0             	mov    -0x20(%rbp),%eax
  40101d:	48 63 d0             	movslq %eax,%rdx
  401020:	48 89 d0             	mov    %rdx,%rax
  401023:	48 c1 e0 02          	shl    $0x2,%rax
  401027:	48 01 d0             	add    %rdx,%rax
  40102a:	48 c1 e0 04          	shl    $0x4,%rax
  40102e:	48 8d 1c 01          	lea    (%rcx,%rax,1),%rbx
  401032:	48 8b 45 e8          	mov    -0x18(%rbp),%rax
  401036:	48 89 c7             	mov    %rax,%rdi
  401039:	e8 c2 f7 ff ff       	callq  400800 <atoi@plt>
  40103e:	89 43 4c             	mov    %eax,0x4c(%rbx)
  401041:	eb 1f                	jmp    401062 <main+0x1ef>
  401043:	83 7d e4 12          	cmpl   $0x12,-0x1c(%rbp)
  401047:	7e 19                	jle    401062 <main+0x1ef>
  401049:	b9 c3 11 40 00       	mov    $0x4011c3,%ecx
  40104e:	ba ef 00 00 00       	mov    $0xef,%edx
  401053:	be a1 11 40 00       	mov    $0x4011a1,%esi
  401058:	bf aa 11 40 00       	mov    $0x4011aa,%edi
  40105d:	e8 1e f7 ff ff       	callq  400780 <__assert_fail@plt>
  401062:	48 8d 85 a0 d8 ff ff 	lea    -0x2760(%rbp),%rax
  401069:	48 89 c6             	mov    %rax,%rsi
  40106c:	bf 00 00 00 00       	mov    $0x0,%edi
  401071:	e8 6a f7 ff ff       	callq  4007e0 <strtok@plt>
  401076:	48 89 45 e8          	mov    %rax,-0x18(%rbp)
  40107a:	83 45 e4 01          	addl   $0x1,-0x1c(%rbp)
  40107e:	48 83 7d e8 00       	cmpq   $0x0,-0x18(%rbp)
  401083:	0f 85 93 fe ff ff    	jne    400f1c <main+0xa9>
  401089:	83 45 e0 01          	addl   $0x1,-0x20(%rbp)
  40108d:	c7 45 e4 00 00 00 00 	movl   $0x0,-0x1c(%rbp)
  401094:	e9 23 fe ff ff       	jmpq   400ebc <main+0x49>
  401099:	48 8b 0d 08 10 20 00 	mov    0x201008(%rip),%rcx        # 6020a8 <dataset>
  4010a0:	8b 45 dc             	mov    -0x24(%rbp),%eax
  4010a3:	48 63 d0             	movslq %eax,%rdx
  4010a6:	48 89 d0             	mov    %rdx,%rax
  4010a9:	48 c1 e0 02          	shl    $0x2,%rax
  4010ad:	48 01 d0             	add    %rdx,%rax
  4010b0:	48 c1 e0 04          	shl    $0x4,%rax
  4010b4:	48 01 c8             	add    %rcx,%rax
  4010b7:	48 8b 00             	mov    (%rax),%rax
  4010ba:	48 89 c7             	mov    %rax,%rdi
  4010bd:	e8 5e f6 ff ff       	callq  400720 <free@plt>
  4010c2:	83 45 dc 01          	addl   $0x1,-0x24(%rbp)
  4010c6:	83 7d dc 66          	cmpl   $0x66,-0x24(%rbp)
  4010ca:	7e cd                	jle    401099 <main+0x226>
  4010cc:	48 8b 05 d5 0f 20 00 	mov    0x200fd5(%rip),%rax        # 6020a8 <dataset>
  4010d3:	48 89 c7             	mov    %rax,%rdi
  4010d6:	e8 45 f6 ff ff       	callq  400720 <free@plt>
  4010db:	b8 00 00 00 00       	mov    $0x0,%eax
  4010e0:	48 81 c4 50 27 00 00 	add    $0x2750,%rsp
  4010e7:	5b                   	pop    %rbx
  4010e8:	41 5c                	pop    %r12
  4010ea:	5d                   	pop    %rbp
  4010eb:	c3                   	retq   
  4010ec:	0f 1f 40 00          	nopl   0x0(%rax)

00000000004010f0 <__libc_csu_init>:
  4010f0:	41 57                	push   %r15
  4010f2:	41 89 ff             	mov    %edi,%r15d
  4010f5:	41 56                	push   %r14
  4010f7:	49 89 f6             	mov    %rsi,%r14
  4010fa:	41 55                	push   %r13
  4010fc:	49 89 d5             	mov    %rdx,%r13
  4010ff:	41 54                	push   %r12
  401101:	4c 8d 25 f8 0c 20 00 	lea    0x200cf8(%rip),%r12        # 601e00 <__frame_dummy_init_array_entry>
  401108:	55                   	push   %rbp
  401109:	48 8d 2d f8 0c 20 00 	lea    0x200cf8(%rip),%rbp        # 601e08 <__init_array_end>
  401110:	53                   	push   %rbx
  401111:	4c 29 e5             	sub    %r12,%rbp
  401114:	31 db                	xor    %ebx,%ebx
  401116:	48 c1 fd 03          	sar    $0x3,%rbp
  40111a:	48 83 ec 08          	sub    $0x8,%rsp
  40111e:	e8 cd f5 ff ff       	callq  4006f0 <_init>
  401123:	48 85 ed             	test   %rbp,%rbp
  401126:	74 1e                	je     401146 <__libc_csu_init+0x56>
  401128:	0f 1f 84 00 00 00 00 	nopl   0x0(%rax,%rax,1)
  40112f:	00 
  401130:	4c 89 ea             	mov    %r13,%rdx
  401133:	4c 89 f6             	mov    %r14,%rsi
  401136:	44 89 ff             	mov    %r15d,%edi
  401139:	41 ff 14 dc          	callq  *(%r12,%rbx,8)
  40113d:	48 83 c3 01          	add    $0x1,%rbx
  401141:	48 39 eb             	cmp    %rbp,%rbx
  401144:	75 ea                	jne    401130 <__libc_csu_init+0x40>
  401146:	48 83 c4 08          	add    $0x8,%rsp
  40114a:	5b                   	pop    %rbx
  40114b:	5d                   	pop    %rbp
  40114c:	41 5c                	pop    %r12
  40114e:	41 5d                	pop    %r13
  401150:	41 5e                	pop    %r14
  401152:	41 5f                	pop    %r15
  401154:	c3                   	retq   
  401155:	90                   	nop
  401156:	66 2e 0f 1f 84 00 00 	nopw   %cs:0x0(%rax,%rax,1)
  40115d:	00 00 00 

0000000000401160 <__libc_csu_fini>:
  401160:	f3 c3                	repz retq 

Disassembly of section .fini:

0000000000401164 <_fini>:
  401164:	48 83 ec 08          	sub    $0x8,%rsp
  401168:	48 83 c4 08          	add    $0x8,%rsp
  40116c:	c3                   	retq   
